ARM GAS  /tmp/ccREYZxX.s 			page 1


   1              		.cpu cortex-m4
   2              		.eabi_attribute 27, 1
   3              		.eabi_attribute 28, 1
   4              		.eabi_attribute 20, 1
   5              		.eabi_attribute 21, 1
   6              		.eabi_attribute 23, 3
   7              		.eabi_attribute 24, 1
   8              		.eabi_attribute 25, 1
   9              		.eabi_attribute 26, 1
  10              		.eabi_attribute 30, 1
  11              		.eabi_attribute 34, 1
  12              		.eabi_attribute 18, 4
  13              		.file	"stm32l4xx_hal_msp.c"
  14              		.text
  15              	.Ltext0:
  16              		.cfi_sections	.debug_frame
  17              		.section	.text.HAL_MspInit,"ax",%progbits
  18              		.align	1
  19              		.global	HAL_MspInit
  20              		.arch armv7e-m
  21              		.syntax unified
  22              		.thumb
  23              		.thumb_func
  24              		.fpu fpv4-sp-d16
  26              	HAL_MspInit:
  27              	.LFB292:
  28              		.file 1 "Src/stm32l4xx_hal_msp.c"
   1:Src/stm32l4xx_hal_msp.c **** /* USER CODE BEGIN Header */
   2:Src/stm32l4xx_hal_msp.c **** /**
   3:Src/stm32l4xx_hal_msp.c ****   ******************************************************************************
   4:Src/stm32l4xx_hal_msp.c ****   * File Name          : stm32l4xx_hal_msp.c
   5:Src/stm32l4xx_hal_msp.c ****   * Description        : This file provides code for the MSP Initialization 
   6:Src/stm32l4xx_hal_msp.c ****   *                      and de-Initialization codes.
   7:Src/stm32l4xx_hal_msp.c ****   ******************************************************************************
   8:Src/stm32l4xx_hal_msp.c ****   * @attention
   9:Src/stm32l4xx_hal_msp.c ****   *
  10:Src/stm32l4xx_hal_msp.c ****   * <h2><center>&copy; Copyright (c) 2020 STMicroelectronics.
  11:Src/stm32l4xx_hal_msp.c ****   * All rights reserved.</center></h2>
  12:Src/stm32l4xx_hal_msp.c ****   *
  13:Src/stm32l4xx_hal_msp.c ****   * This software component is licensed by ST under BSD 3-Clause license,
  14:Src/stm32l4xx_hal_msp.c ****   * the "License"; You may not use this file except in compliance with the
  15:Src/stm32l4xx_hal_msp.c ****   * License. You may obtain a copy of the License at:
  16:Src/stm32l4xx_hal_msp.c ****   *                        opensource.org/licenses/BSD-3-Clause
  17:Src/stm32l4xx_hal_msp.c ****   *
  18:Src/stm32l4xx_hal_msp.c ****   ******************************************************************************
  19:Src/stm32l4xx_hal_msp.c ****   */
  20:Src/stm32l4xx_hal_msp.c **** /* USER CODE END Header */
  21:Src/stm32l4xx_hal_msp.c **** 
  22:Src/stm32l4xx_hal_msp.c **** /* Includes ------------------------------------------------------------------*/
  23:Src/stm32l4xx_hal_msp.c **** #include "main.h"
  24:Src/stm32l4xx_hal_msp.c **** /* USER CODE BEGIN Includes */
  25:Src/stm32l4xx_hal_msp.c **** 
  26:Src/stm32l4xx_hal_msp.c **** /* USER CODE END Includes */
  27:Src/stm32l4xx_hal_msp.c **** 
  28:Src/stm32l4xx_hal_msp.c **** /* Private typedef -----------------------------------------------------------*/
  29:Src/stm32l4xx_hal_msp.c **** /* USER CODE BEGIN TD */
  30:Src/stm32l4xx_hal_msp.c **** 
ARM GAS  /tmp/ccREYZxX.s 			page 2


  31:Src/stm32l4xx_hal_msp.c **** /* USER CODE END TD */
  32:Src/stm32l4xx_hal_msp.c **** 
  33:Src/stm32l4xx_hal_msp.c **** /* Private define ------------------------------------------------------------*/
  34:Src/stm32l4xx_hal_msp.c **** /* USER CODE BEGIN Define */
  35:Src/stm32l4xx_hal_msp.c ****  
  36:Src/stm32l4xx_hal_msp.c **** /* USER CODE END Define */
  37:Src/stm32l4xx_hal_msp.c **** 
  38:Src/stm32l4xx_hal_msp.c **** /* Private macro -------------------------------------------------------------*/
  39:Src/stm32l4xx_hal_msp.c **** /* USER CODE BEGIN Macro */
  40:Src/stm32l4xx_hal_msp.c **** 
  41:Src/stm32l4xx_hal_msp.c **** /* USER CODE END Macro */
  42:Src/stm32l4xx_hal_msp.c **** 
  43:Src/stm32l4xx_hal_msp.c **** /* Private variables ---------------------------------------------------------*/
  44:Src/stm32l4xx_hal_msp.c **** /* USER CODE BEGIN PV */
  45:Src/stm32l4xx_hal_msp.c **** 
  46:Src/stm32l4xx_hal_msp.c **** /* USER CODE END PV */
  47:Src/stm32l4xx_hal_msp.c **** 
  48:Src/stm32l4xx_hal_msp.c **** /* Private function prototypes -----------------------------------------------*/
  49:Src/stm32l4xx_hal_msp.c **** /* USER CODE BEGIN PFP */
  50:Src/stm32l4xx_hal_msp.c **** 
  51:Src/stm32l4xx_hal_msp.c **** /* USER CODE END PFP */
  52:Src/stm32l4xx_hal_msp.c **** 
  53:Src/stm32l4xx_hal_msp.c **** /* External functions --------------------------------------------------------*/
  54:Src/stm32l4xx_hal_msp.c **** /* USER CODE BEGIN ExternalFunctions */
  55:Src/stm32l4xx_hal_msp.c **** 
  56:Src/stm32l4xx_hal_msp.c **** /* USER CODE END ExternalFunctions */
  57:Src/stm32l4xx_hal_msp.c **** 
  58:Src/stm32l4xx_hal_msp.c **** /* USER CODE BEGIN 0 */
  59:Src/stm32l4xx_hal_msp.c **** 
  60:Src/stm32l4xx_hal_msp.c **** /* USER CODE END 0 */
  61:Src/stm32l4xx_hal_msp.c **** 
  62:Src/stm32l4xx_hal_msp.c **** void HAL_TIM_MspPostInit(TIM_HandleTypeDef *htim);
  63:Src/stm32l4xx_hal_msp.c ****                     /**
  64:Src/stm32l4xx_hal_msp.c ****   * Initializes the Global MSP.
  65:Src/stm32l4xx_hal_msp.c ****   */
  66:Src/stm32l4xx_hal_msp.c **** void HAL_MspInit(void)
  67:Src/stm32l4xx_hal_msp.c **** {
  29              		.loc 1 67 1 view -0
  30              		.cfi_startproc
  31              		@ args = 0, pretend = 0, frame = 8
  32              		@ frame_needed = 0, uses_anonymous_args = 0
  33              		@ link register save eliminated.
  34 0000 82B0     		sub	sp, sp, #8
  35              	.LCFI0:
  36              		.cfi_def_cfa_offset 8
  68:Src/stm32l4xx_hal_msp.c ****   /* USER CODE BEGIN MspInit 0 */
  69:Src/stm32l4xx_hal_msp.c **** 
  70:Src/stm32l4xx_hal_msp.c ****   /* USER CODE END MspInit 0 */
  71:Src/stm32l4xx_hal_msp.c **** 
  72:Src/stm32l4xx_hal_msp.c ****   __HAL_RCC_SYSCFG_CLK_ENABLE();
  37              		.loc 1 72 3 view .LVU1
  38              	.LBB2:
  39              		.loc 1 72 3 view .LVU2
  40              		.loc 1 72 3 view .LVU3
  41 0002 0A4B     		ldr	r3, .L3
  42 0004 1A6E     		ldr	r2, [r3, #96]
  43 0006 42F00102 		orr	r2, r2, #1
ARM GAS  /tmp/ccREYZxX.s 			page 3


  44 000a 1A66     		str	r2, [r3, #96]
  45              		.loc 1 72 3 view .LVU4
  46 000c 1A6E     		ldr	r2, [r3, #96]
  47 000e 02F00102 		and	r2, r2, #1
  48 0012 0092     		str	r2, [sp]
  49              		.loc 1 72 3 view .LVU5
  50 0014 009A     		ldr	r2, [sp]
  51              	.LBE2:
  52              		.loc 1 72 3 view .LVU6
  73:Src/stm32l4xx_hal_msp.c ****   __HAL_RCC_PWR_CLK_ENABLE();
  53              		.loc 1 73 3 view .LVU7
  54              	.LBB3:
  55              		.loc 1 73 3 view .LVU8
  56              		.loc 1 73 3 view .LVU9
  57 0016 9A6D     		ldr	r2, [r3, #88]
  58 0018 42F08052 		orr	r2, r2, #268435456
  59 001c 9A65     		str	r2, [r3, #88]
  60              		.loc 1 73 3 view .LVU10
  61 001e 9B6D     		ldr	r3, [r3, #88]
  62 0020 03F08053 		and	r3, r3, #268435456
  63 0024 0193     		str	r3, [sp, #4]
  64              		.loc 1 73 3 view .LVU11
  65 0026 019B     		ldr	r3, [sp, #4]
  66              	.LBE3:
  67              		.loc 1 73 3 view .LVU12
  74:Src/stm32l4xx_hal_msp.c **** 
  75:Src/stm32l4xx_hal_msp.c ****   /* System interrupt init*/
  76:Src/stm32l4xx_hal_msp.c **** 
  77:Src/stm32l4xx_hal_msp.c ****   /* USER CODE BEGIN MspInit 1 */
  78:Src/stm32l4xx_hal_msp.c **** 
  79:Src/stm32l4xx_hal_msp.c ****   /* USER CODE END MspInit 1 */
  80:Src/stm32l4xx_hal_msp.c **** }
  68              		.loc 1 80 1 is_stmt 0 view .LVU13
  69 0028 02B0     		add	sp, sp, #8
  70              	.LCFI1:
  71              		.cfi_def_cfa_offset 0
  72              		@ sp needed
  73 002a 7047     		bx	lr
  74              	.L4:
  75              		.align	2
  76              	.L3:
  77 002c 00100240 		.word	1073876992
  78              		.cfi_endproc
  79              	.LFE292:
  81              		.section	.text.HAL_ADC_MspInit,"ax",%progbits
  82              		.align	1
  83              		.global	HAL_ADC_MspInit
  84              		.syntax unified
  85              		.thumb
  86              		.thumb_func
  87              		.fpu fpv4-sp-d16
  89              	HAL_ADC_MspInit:
  90              	.LVL0:
  91              	.LFB293:
  81:Src/stm32l4xx_hal_msp.c **** 
  82:Src/stm32l4xx_hal_msp.c **** /**
  83:Src/stm32l4xx_hal_msp.c **** * @brief ADC MSP Initialization
ARM GAS  /tmp/ccREYZxX.s 			page 4


  84:Src/stm32l4xx_hal_msp.c **** * This function configures the hardware resources used in this example
  85:Src/stm32l4xx_hal_msp.c **** * @param hadc: ADC handle pointer
  86:Src/stm32l4xx_hal_msp.c **** * @retval None
  87:Src/stm32l4xx_hal_msp.c **** */
  88:Src/stm32l4xx_hal_msp.c **** void HAL_ADC_MspInit(ADC_HandleTypeDef* hadc)
  89:Src/stm32l4xx_hal_msp.c **** {
  92              		.loc 1 89 1 is_stmt 1 view -0
  93              		.cfi_startproc
  94              		@ args = 0, pretend = 0, frame = 32
  95              		@ frame_needed = 0, uses_anonymous_args = 0
  96              		.loc 1 89 1 is_stmt 0 view .LVU15
  97 0000 00B5     		push	{lr}
  98              	.LCFI2:
  99              		.cfi_def_cfa_offset 4
 100              		.cfi_offset 14, -4
 101 0002 89B0     		sub	sp, sp, #36
 102              	.LCFI3:
 103              		.cfi_def_cfa_offset 40
  90:Src/stm32l4xx_hal_msp.c ****   GPIO_InitTypeDef GPIO_InitStruct = {0};
 104              		.loc 1 90 3 is_stmt 1 view .LVU16
 105              		.loc 1 90 20 is_stmt 0 view .LVU17
 106 0004 0023     		movs	r3, #0
 107 0006 0393     		str	r3, [sp, #12]
 108 0008 0493     		str	r3, [sp, #16]
 109 000a 0593     		str	r3, [sp, #20]
 110 000c 0693     		str	r3, [sp, #24]
 111 000e 0793     		str	r3, [sp, #28]
  91:Src/stm32l4xx_hal_msp.c ****   if(hadc->Instance==ADC1)
 112              		.loc 1 91 3 is_stmt 1 view .LVU18
 113              		.loc 1 91 10 is_stmt 0 view .LVU19
 114 0010 0268     		ldr	r2, [r0]
 115              		.loc 1 91 5 view .LVU20
 116 0012 144B     		ldr	r3, .L9
 117 0014 9A42     		cmp	r2, r3
 118 0016 02D0     		beq	.L8
 119              	.LVL1:
 120              	.L5:
  92:Src/stm32l4xx_hal_msp.c ****   {
  93:Src/stm32l4xx_hal_msp.c ****   /* USER CODE BEGIN ADC1_MspInit 0 */
  94:Src/stm32l4xx_hal_msp.c **** 
  95:Src/stm32l4xx_hal_msp.c ****   /* USER CODE END ADC1_MspInit 0 */
  96:Src/stm32l4xx_hal_msp.c ****     /* Peripheral clock enable */
  97:Src/stm32l4xx_hal_msp.c ****     __HAL_RCC_ADC_CLK_ENABLE();
  98:Src/stm32l4xx_hal_msp.c **** 
  99:Src/stm32l4xx_hal_msp.c ****     __HAL_RCC_GPIOA_CLK_ENABLE();
 100:Src/stm32l4xx_hal_msp.c ****     /**ADC1 GPIO Configuration
 101:Src/stm32l4xx_hal_msp.c ****     PA0     ------> ADC1_IN5
 102:Src/stm32l4xx_hal_msp.c ****     PA5     ------> ADC1_IN10
 103:Src/stm32l4xx_hal_msp.c ****     PA6     ------> ADC1_IN11
 104:Src/stm32l4xx_hal_msp.c ****     */
 105:Src/stm32l4xx_hal_msp.c ****     GPIO_InitStruct.Pin = _5V_MON_Pin|PWM_MON_Pin|I_MON_Pin;
 106:Src/stm32l4xx_hal_msp.c ****     GPIO_InitStruct.Mode = GPIO_MODE_ANALOG_ADC_CONTROL;
 107:Src/stm32l4xx_hal_msp.c ****     GPIO_InitStruct.Pull = GPIO_NOPULL;
 108:Src/stm32l4xx_hal_msp.c ****     HAL_GPIO_Init(GPIOA, &GPIO_InitStruct);
 109:Src/stm32l4xx_hal_msp.c **** 
 110:Src/stm32l4xx_hal_msp.c ****   /* USER CODE BEGIN ADC1_MspInit 1 */
 111:Src/stm32l4xx_hal_msp.c **** 
ARM GAS  /tmp/ccREYZxX.s 			page 5


 112:Src/stm32l4xx_hal_msp.c ****   /* USER CODE END ADC1_MspInit 1 */
 113:Src/stm32l4xx_hal_msp.c ****   }
 114:Src/stm32l4xx_hal_msp.c **** 
 115:Src/stm32l4xx_hal_msp.c **** }
 121              		.loc 1 115 1 view .LVU21
 122 0018 09B0     		add	sp, sp, #36
 123              	.LCFI4:
 124              		.cfi_remember_state
 125              		.cfi_def_cfa_offset 4
 126              		@ sp needed
 127 001a 5DF804FB 		ldr	pc, [sp], #4
 128              	.LVL2:
 129              	.L8:
 130              	.LCFI5:
 131              		.cfi_restore_state
  97:Src/stm32l4xx_hal_msp.c **** 
 132              		.loc 1 97 5 is_stmt 1 view .LVU22
 133              	.LBB4:
  97:Src/stm32l4xx_hal_msp.c **** 
 134              		.loc 1 97 5 view .LVU23
  97:Src/stm32l4xx_hal_msp.c **** 
 135              		.loc 1 97 5 view .LVU24
 136 001e 03F17043 		add	r3, r3, #-268435456
 137 0022 A3F5F833 		sub	r3, r3, #126976
 138 0026 DA6C     		ldr	r2, [r3, #76]
 139 0028 42F40052 		orr	r2, r2, #8192
 140 002c DA64     		str	r2, [r3, #76]
  97:Src/stm32l4xx_hal_msp.c **** 
 141              		.loc 1 97 5 view .LVU25
 142 002e DA6C     		ldr	r2, [r3, #76]
 143 0030 02F40052 		and	r2, r2, #8192
 144 0034 0192     		str	r2, [sp, #4]
  97:Src/stm32l4xx_hal_msp.c **** 
 145              		.loc 1 97 5 view .LVU26
 146 0036 019A     		ldr	r2, [sp, #4]
 147              	.LBE4:
  97:Src/stm32l4xx_hal_msp.c **** 
 148              		.loc 1 97 5 view .LVU27
  99:Src/stm32l4xx_hal_msp.c ****     /**ADC1 GPIO Configuration
 149              		.loc 1 99 5 view .LVU28
 150              	.LBB5:
  99:Src/stm32l4xx_hal_msp.c ****     /**ADC1 GPIO Configuration
 151              		.loc 1 99 5 view .LVU29
  99:Src/stm32l4xx_hal_msp.c ****     /**ADC1 GPIO Configuration
 152              		.loc 1 99 5 view .LVU30
 153 0038 DA6C     		ldr	r2, [r3, #76]
 154 003a 42F00102 		orr	r2, r2, #1
 155 003e DA64     		str	r2, [r3, #76]
  99:Src/stm32l4xx_hal_msp.c ****     /**ADC1 GPIO Configuration
 156              		.loc 1 99 5 view .LVU31
 157 0040 DB6C     		ldr	r3, [r3, #76]
 158 0042 03F00103 		and	r3, r3, #1
 159 0046 0293     		str	r3, [sp, #8]
  99:Src/stm32l4xx_hal_msp.c ****     /**ADC1 GPIO Configuration
 160              		.loc 1 99 5 view .LVU32
 161 0048 029B     		ldr	r3, [sp, #8]
 162              	.LBE5:
ARM GAS  /tmp/ccREYZxX.s 			page 6


  99:Src/stm32l4xx_hal_msp.c ****     /**ADC1 GPIO Configuration
 163              		.loc 1 99 5 view .LVU33
 105:Src/stm32l4xx_hal_msp.c ****     GPIO_InitStruct.Mode = GPIO_MODE_ANALOG_ADC_CONTROL;
 164              		.loc 1 105 5 view .LVU34
 105:Src/stm32l4xx_hal_msp.c ****     GPIO_InitStruct.Mode = GPIO_MODE_ANALOG_ADC_CONTROL;
 165              		.loc 1 105 25 is_stmt 0 view .LVU35
 166 004a 6123     		movs	r3, #97
 167 004c 0393     		str	r3, [sp, #12]
 106:Src/stm32l4xx_hal_msp.c ****     GPIO_InitStruct.Pull = GPIO_NOPULL;
 168              		.loc 1 106 5 is_stmt 1 view .LVU36
 106:Src/stm32l4xx_hal_msp.c ****     GPIO_InitStruct.Pull = GPIO_NOPULL;
 169              		.loc 1 106 26 is_stmt 0 view .LVU37
 170 004e 0B23     		movs	r3, #11
 171 0050 0493     		str	r3, [sp, #16]
 107:Src/stm32l4xx_hal_msp.c ****     HAL_GPIO_Init(GPIOA, &GPIO_InitStruct);
 172              		.loc 1 107 5 is_stmt 1 view .LVU38
 107:Src/stm32l4xx_hal_msp.c ****     HAL_GPIO_Init(GPIOA, &GPIO_InitStruct);
 173              		.loc 1 107 26 is_stmt 0 view .LVU39
 174 0052 0023     		movs	r3, #0
 175 0054 0593     		str	r3, [sp, #20]
 108:Src/stm32l4xx_hal_msp.c **** 
 176              		.loc 1 108 5 is_stmt 1 view .LVU40
 177 0056 03A9     		add	r1, sp, #12
 178 0058 4FF09040 		mov	r0, #1207959552
 179              	.LVL3:
 108:Src/stm32l4xx_hal_msp.c **** 
 180              		.loc 1 108 5 is_stmt 0 view .LVU41
 181 005c FFF7FEFF 		bl	HAL_GPIO_Init
 182              	.LVL4:
 183              		.loc 1 115 1 view .LVU42
 184 0060 DAE7     		b	.L5
 185              	.L10:
 186 0062 00BF     		.align	2
 187              	.L9:
 188 0064 00000450 		.word	1342439424
 189              		.cfi_endproc
 190              	.LFE293:
 192              		.section	.text.HAL_ADC_MspDeInit,"ax",%progbits
 193              		.align	1
 194              		.global	HAL_ADC_MspDeInit
 195              		.syntax unified
 196              		.thumb
 197              		.thumb_func
 198              		.fpu fpv4-sp-d16
 200              	HAL_ADC_MspDeInit:
 201              	.LVL5:
 202              	.LFB294:
 116:Src/stm32l4xx_hal_msp.c **** 
 117:Src/stm32l4xx_hal_msp.c **** /**
 118:Src/stm32l4xx_hal_msp.c **** * @brief ADC MSP De-Initialization
 119:Src/stm32l4xx_hal_msp.c **** * This function freeze the hardware resources used in this example
 120:Src/stm32l4xx_hal_msp.c **** * @param hadc: ADC handle pointer
 121:Src/stm32l4xx_hal_msp.c **** * @retval None
 122:Src/stm32l4xx_hal_msp.c **** */
 123:Src/stm32l4xx_hal_msp.c **** void HAL_ADC_MspDeInit(ADC_HandleTypeDef* hadc)
 124:Src/stm32l4xx_hal_msp.c **** {
 203              		.loc 1 124 1 is_stmt 1 view -0
ARM GAS  /tmp/ccREYZxX.s 			page 7


 204              		.cfi_startproc
 205              		@ args = 0, pretend = 0, frame = 0
 206              		@ frame_needed = 0, uses_anonymous_args = 0
 207              		.loc 1 124 1 is_stmt 0 view .LVU44
 208 0000 08B5     		push	{r3, lr}
 209              	.LCFI6:
 210              		.cfi_def_cfa_offset 8
 211              		.cfi_offset 3, -8
 212              		.cfi_offset 14, -4
 125:Src/stm32l4xx_hal_msp.c ****   if(hadc->Instance==ADC1)
 213              		.loc 1 125 3 is_stmt 1 view .LVU45
 214              		.loc 1 125 10 is_stmt 0 view .LVU46
 215 0002 0268     		ldr	r2, [r0]
 216              		.loc 1 125 5 view .LVU47
 217 0004 074B     		ldr	r3, .L15
 218 0006 9A42     		cmp	r2, r3
 219 0008 00D0     		beq	.L14
 220              	.LVL6:
 221              	.L11:
 126:Src/stm32l4xx_hal_msp.c ****   {
 127:Src/stm32l4xx_hal_msp.c ****   /* USER CODE BEGIN ADC1_MspDeInit 0 */
 128:Src/stm32l4xx_hal_msp.c **** 
 129:Src/stm32l4xx_hal_msp.c ****   /* USER CODE END ADC1_MspDeInit 0 */
 130:Src/stm32l4xx_hal_msp.c ****     /* Peripheral clock disable */
 131:Src/stm32l4xx_hal_msp.c ****     __HAL_RCC_ADC_CLK_DISABLE();
 132:Src/stm32l4xx_hal_msp.c **** 
 133:Src/stm32l4xx_hal_msp.c ****     /**ADC1 GPIO Configuration
 134:Src/stm32l4xx_hal_msp.c ****     PA0     ------> ADC1_IN5
 135:Src/stm32l4xx_hal_msp.c ****     PA5     ------> ADC1_IN10
 136:Src/stm32l4xx_hal_msp.c ****     PA6     ------> ADC1_IN11
 137:Src/stm32l4xx_hal_msp.c ****     */
 138:Src/stm32l4xx_hal_msp.c ****     HAL_GPIO_DeInit(GPIOA, _5V_MON_Pin|PWM_MON_Pin|I_MON_Pin);
 139:Src/stm32l4xx_hal_msp.c **** 
 140:Src/stm32l4xx_hal_msp.c ****   /* USER CODE BEGIN ADC1_MspDeInit 1 */
 141:Src/stm32l4xx_hal_msp.c **** 
 142:Src/stm32l4xx_hal_msp.c ****   /* USER CODE END ADC1_MspDeInit 1 */
 143:Src/stm32l4xx_hal_msp.c ****   }
 144:Src/stm32l4xx_hal_msp.c **** 
 145:Src/stm32l4xx_hal_msp.c **** }
 222              		.loc 1 145 1 view .LVU48
 223 000a 08BD     		pop	{r3, pc}
 224              	.LVL7:
 225              	.L14:
 131:Src/stm32l4xx_hal_msp.c **** 
 226              		.loc 1 131 5 is_stmt 1 view .LVU49
 227 000c 064A     		ldr	r2, .L15+4
 228 000e D36C     		ldr	r3, [r2, #76]
 229 0010 23F40053 		bic	r3, r3, #8192
 230 0014 D364     		str	r3, [r2, #76]
 138:Src/stm32l4xx_hal_msp.c **** 
 231              		.loc 1 138 5 view .LVU50
 232 0016 6121     		movs	r1, #97
 233 0018 4FF09040 		mov	r0, #1207959552
 234              	.LVL8:
 138:Src/stm32l4xx_hal_msp.c **** 
 235              		.loc 1 138 5 is_stmt 0 view .LVU51
 236 001c FFF7FEFF 		bl	HAL_GPIO_DeInit
ARM GAS  /tmp/ccREYZxX.s 			page 8


 237              	.LVL9:
 238              		.loc 1 145 1 view .LVU52
 239 0020 F3E7     		b	.L11
 240              	.L16:
 241 0022 00BF     		.align	2
 242              	.L15:
 243 0024 00000450 		.word	1342439424
 244 0028 00100240 		.word	1073876992
 245              		.cfi_endproc
 246              	.LFE294:
 248              		.section	.text.HAL_I2C_MspInit,"ax",%progbits
 249              		.align	1
 250              		.global	HAL_I2C_MspInit
 251              		.syntax unified
 252              		.thumb
 253              		.thumb_func
 254              		.fpu fpv4-sp-d16
 256              	HAL_I2C_MspInit:
 257              	.LVL10:
 258              	.LFB295:
 146:Src/stm32l4xx_hal_msp.c **** 
 147:Src/stm32l4xx_hal_msp.c **** /**
 148:Src/stm32l4xx_hal_msp.c **** * @brief I2C MSP Initialization
 149:Src/stm32l4xx_hal_msp.c **** * This function configures the hardware resources used in this example
 150:Src/stm32l4xx_hal_msp.c **** * @param hi2c: I2C handle pointer
 151:Src/stm32l4xx_hal_msp.c **** * @retval None
 152:Src/stm32l4xx_hal_msp.c **** */
 153:Src/stm32l4xx_hal_msp.c **** void HAL_I2C_MspInit(I2C_HandleTypeDef* hi2c)
 154:Src/stm32l4xx_hal_msp.c **** {
 259              		.loc 1 154 1 is_stmt 1 view -0
 260              		.cfi_startproc
 261              		@ args = 0, pretend = 0, frame = 32
 262              		@ frame_needed = 0, uses_anonymous_args = 0
 263              		.loc 1 154 1 is_stmt 0 view .LVU54
 264 0000 10B5     		push	{r4, lr}
 265              	.LCFI7:
 266              		.cfi_def_cfa_offset 8
 267              		.cfi_offset 4, -8
 268              		.cfi_offset 14, -4
 269 0002 88B0     		sub	sp, sp, #32
 270              	.LCFI8:
 271              		.cfi_def_cfa_offset 40
 155:Src/stm32l4xx_hal_msp.c ****   GPIO_InitTypeDef GPIO_InitStruct = {0};
 272              		.loc 1 155 3 is_stmt 1 view .LVU55
 273              		.loc 1 155 20 is_stmt 0 view .LVU56
 274 0004 0023     		movs	r3, #0
 275 0006 0393     		str	r3, [sp, #12]
 276 0008 0493     		str	r3, [sp, #16]
 277 000a 0593     		str	r3, [sp, #20]
 278 000c 0693     		str	r3, [sp, #24]
 279 000e 0793     		str	r3, [sp, #28]
 156:Src/stm32l4xx_hal_msp.c ****   if(hi2c->Instance==I2C2)
 280              		.loc 1 156 3 is_stmt 1 view .LVU57
 281              		.loc 1 156 10 is_stmt 0 view .LVU58
 282 0010 0268     		ldr	r2, [r0]
 283              		.loc 1 156 5 view .LVU59
 284 0012 144B     		ldr	r3, .L21
ARM GAS  /tmp/ccREYZxX.s 			page 9


 285 0014 9A42     		cmp	r2, r3
 286 0016 01D0     		beq	.L20
 287              	.LVL11:
 288              	.L17:
 157:Src/stm32l4xx_hal_msp.c ****   {
 158:Src/stm32l4xx_hal_msp.c ****   /* USER CODE BEGIN I2C2_MspInit 0 */
 159:Src/stm32l4xx_hal_msp.c **** 
 160:Src/stm32l4xx_hal_msp.c ****   /* USER CODE END I2C2_MspInit 0 */
 161:Src/stm32l4xx_hal_msp.c **** 
 162:Src/stm32l4xx_hal_msp.c ****     __HAL_RCC_GPIOB_CLK_ENABLE();
 163:Src/stm32l4xx_hal_msp.c ****     /**I2C2 GPIO Configuration
 164:Src/stm32l4xx_hal_msp.c ****     PB10     ------> I2C2_SCL
 165:Src/stm32l4xx_hal_msp.c ****     PB11     ------> I2C2_SDA
 166:Src/stm32l4xx_hal_msp.c ****     */
 167:Src/stm32l4xx_hal_msp.c ****     GPIO_InitStruct.Pin = GPIO_PIN_10|GPIO_PIN_11;
 168:Src/stm32l4xx_hal_msp.c ****     GPIO_InitStruct.Mode = GPIO_MODE_AF_OD;
 169:Src/stm32l4xx_hal_msp.c ****     GPIO_InitStruct.Pull = GPIO_PULLUP;
 170:Src/stm32l4xx_hal_msp.c ****     GPIO_InitStruct.Speed = GPIO_SPEED_FREQ_VERY_HIGH;
 171:Src/stm32l4xx_hal_msp.c ****     GPIO_InitStruct.Alternate = GPIO_AF4_I2C2;
 172:Src/stm32l4xx_hal_msp.c ****     HAL_GPIO_Init(GPIOB, &GPIO_InitStruct);
 173:Src/stm32l4xx_hal_msp.c **** 
 174:Src/stm32l4xx_hal_msp.c ****     /* Peripheral clock enable */
 175:Src/stm32l4xx_hal_msp.c ****     __HAL_RCC_I2C2_CLK_ENABLE();
 176:Src/stm32l4xx_hal_msp.c ****   /* USER CODE BEGIN I2C2_MspInit 1 */
 177:Src/stm32l4xx_hal_msp.c **** 
 178:Src/stm32l4xx_hal_msp.c ****   /* USER CODE END I2C2_MspInit 1 */
 179:Src/stm32l4xx_hal_msp.c ****   }
 180:Src/stm32l4xx_hal_msp.c **** 
 181:Src/stm32l4xx_hal_msp.c **** }
 289              		.loc 1 181 1 view .LVU60
 290 0018 08B0     		add	sp, sp, #32
 291              	.LCFI9:
 292              		.cfi_remember_state
 293              		.cfi_def_cfa_offset 8
 294              		@ sp needed
 295 001a 10BD     		pop	{r4, pc}
 296              	.LVL12:
 297              	.L20:
 298              	.LCFI10:
 299              		.cfi_restore_state
 162:Src/stm32l4xx_hal_msp.c ****     /**I2C2 GPIO Configuration
 300              		.loc 1 162 5 is_stmt 1 view .LVU61
 301              	.LBB6:
 162:Src/stm32l4xx_hal_msp.c ****     /**I2C2 GPIO Configuration
 302              		.loc 1 162 5 view .LVU62
 162:Src/stm32l4xx_hal_msp.c ****     /**I2C2 GPIO Configuration
 303              		.loc 1 162 5 view .LVU63
 304 001c 124C     		ldr	r4, .L21+4
 305 001e E36C     		ldr	r3, [r4, #76]
 306 0020 43F00203 		orr	r3, r3, #2
 307 0024 E364     		str	r3, [r4, #76]
 162:Src/stm32l4xx_hal_msp.c ****     /**I2C2 GPIO Configuration
 308              		.loc 1 162 5 view .LVU64
 309 0026 E36C     		ldr	r3, [r4, #76]
 310 0028 03F00203 		and	r3, r3, #2
 311 002c 0193     		str	r3, [sp, #4]
 162:Src/stm32l4xx_hal_msp.c ****     /**I2C2 GPIO Configuration
ARM GAS  /tmp/ccREYZxX.s 			page 10


 312              		.loc 1 162 5 view .LVU65
 313 002e 019B     		ldr	r3, [sp, #4]
 314              	.LBE6:
 162:Src/stm32l4xx_hal_msp.c ****     /**I2C2 GPIO Configuration
 315              		.loc 1 162 5 view .LVU66
 167:Src/stm32l4xx_hal_msp.c ****     GPIO_InitStruct.Mode = GPIO_MODE_AF_OD;
 316              		.loc 1 167 5 view .LVU67
 167:Src/stm32l4xx_hal_msp.c ****     GPIO_InitStruct.Mode = GPIO_MODE_AF_OD;
 317              		.loc 1 167 25 is_stmt 0 view .LVU68
 318 0030 4FF44063 		mov	r3, #3072
 319 0034 0393     		str	r3, [sp, #12]
 168:Src/stm32l4xx_hal_msp.c ****     GPIO_InitStruct.Pull = GPIO_PULLUP;
 320              		.loc 1 168 5 is_stmt 1 view .LVU69
 168:Src/stm32l4xx_hal_msp.c ****     GPIO_InitStruct.Pull = GPIO_PULLUP;
 321              		.loc 1 168 26 is_stmt 0 view .LVU70
 322 0036 1223     		movs	r3, #18
 323 0038 0493     		str	r3, [sp, #16]
 169:Src/stm32l4xx_hal_msp.c ****     GPIO_InitStruct.Speed = GPIO_SPEED_FREQ_VERY_HIGH;
 324              		.loc 1 169 5 is_stmt 1 view .LVU71
 169:Src/stm32l4xx_hal_msp.c ****     GPIO_InitStruct.Speed = GPIO_SPEED_FREQ_VERY_HIGH;
 325              		.loc 1 169 26 is_stmt 0 view .LVU72
 326 003a 0123     		movs	r3, #1
 327 003c 0593     		str	r3, [sp, #20]
 170:Src/stm32l4xx_hal_msp.c ****     GPIO_InitStruct.Alternate = GPIO_AF4_I2C2;
 328              		.loc 1 170 5 is_stmt 1 view .LVU73
 170:Src/stm32l4xx_hal_msp.c ****     GPIO_InitStruct.Alternate = GPIO_AF4_I2C2;
 329              		.loc 1 170 27 is_stmt 0 view .LVU74
 330 003e 0323     		movs	r3, #3
 331 0040 0693     		str	r3, [sp, #24]
 171:Src/stm32l4xx_hal_msp.c ****     HAL_GPIO_Init(GPIOB, &GPIO_InitStruct);
 332              		.loc 1 171 5 is_stmt 1 view .LVU75
 171:Src/stm32l4xx_hal_msp.c ****     HAL_GPIO_Init(GPIOB, &GPIO_InitStruct);
 333              		.loc 1 171 31 is_stmt 0 view .LVU76
 334 0042 0423     		movs	r3, #4
 335 0044 0793     		str	r3, [sp, #28]
 172:Src/stm32l4xx_hal_msp.c **** 
 336              		.loc 1 172 5 is_stmt 1 view .LVU77
 337 0046 03A9     		add	r1, sp, #12
 338 0048 0848     		ldr	r0, .L21+8
 339              	.LVL13:
 172:Src/stm32l4xx_hal_msp.c **** 
 340              		.loc 1 172 5 is_stmt 0 view .LVU78
 341 004a FFF7FEFF 		bl	HAL_GPIO_Init
 342              	.LVL14:
 175:Src/stm32l4xx_hal_msp.c ****   /* USER CODE BEGIN I2C2_MspInit 1 */
 343              		.loc 1 175 5 is_stmt 1 view .LVU79
 344              	.LBB7:
 175:Src/stm32l4xx_hal_msp.c ****   /* USER CODE BEGIN I2C2_MspInit 1 */
 345              		.loc 1 175 5 view .LVU80
 175:Src/stm32l4xx_hal_msp.c ****   /* USER CODE BEGIN I2C2_MspInit 1 */
 346              		.loc 1 175 5 view .LVU81
 347 004e A36D     		ldr	r3, [r4, #88]
 348 0050 43F48003 		orr	r3, r3, #4194304
 349 0054 A365     		str	r3, [r4, #88]
 175:Src/stm32l4xx_hal_msp.c ****   /* USER CODE BEGIN I2C2_MspInit 1 */
 350              		.loc 1 175 5 view .LVU82
 351 0056 A36D     		ldr	r3, [r4, #88]
ARM GAS  /tmp/ccREYZxX.s 			page 11


 352 0058 03F48003 		and	r3, r3, #4194304
 353 005c 0293     		str	r3, [sp, #8]
 175:Src/stm32l4xx_hal_msp.c ****   /* USER CODE BEGIN I2C2_MspInit 1 */
 354              		.loc 1 175 5 view .LVU83
 355 005e 029B     		ldr	r3, [sp, #8]
 356              	.LBE7:
 175:Src/stm32l4xx_hal_msp.c ****   /* USER CODE BEGIN I2C2_MspInit 1 */
 357              		.loc 1 175 5 view .LVU84
 358              		.loc 1 181 1 is_stmt 0 view .LVU85
 359 0060 DAE7     		b	.L17
 360              	.L22:
 361 0062 00BF     		.align	2
 362              	.L21:
 363 0064 00580040 		.word	1073764352
 364 0068 00100240 		.word	1073876992
 365 006c 00040048 		.word	1207960576
 366              		.cfi_endproc
 367              	.LFE295:
 369              		.section	.text.HAL_I2C_MspDeInit,"ax",%progbits
 370              		.align	1
 371              		.global	HAL_I2C_MspDeInit
 372              		.syntax unified
 373              		.thumb
 374              		.thumb_func
 375              		.fpu fpv4-sp-d16
 377              	HAL_I2C_MspDeInit:
 378              	.LVL15:
 379              	.LFB296:
 182:Src/stm32l4xx_hal_msp.c **** 
 183:Src/stm32l4xx_hal_msp.c **** /**
 184:Src/stm32l4xx_hal_msp.c **** * @brief I2C MSP De-Initialization
 185:Src/stm32l4xx_hal_msp.c **** * This function freeze the hardware resources used in this example
 186:Src/stm32l4xx_hal_msp.c **** * @param hi2c: I2C handle pointer
 187:Src/stm32l4xx_hal_msp.c **** * @retval None
 188:Src/stm32l4xx_hal_msp.c **** */
 189:Src/stm32l4xx_hal_msp.c **** void HAL_I2C_MspDeInit(I2C_HandleTypeDef* hi2c)
 190:Src/stm32l4xx_hal_msp.c **** {
 380              		.loc 1 190 1 is_stmt 1 view -0
 381              		.cfi_startproc
 382              		@ args = 0, pretend = 0, frame = 0
 383              		@ frame_needed = 0, uses_anonymous_args = 0
 191:Src/stm32l4xx_hal_msp.c ****   if(hi2c->Instance==I2C2)
 384              		.loc 1 191 3 view .LVU87
 385              		.loc 1 191 10 is_stmt 0 view .LVU88
 386 0000 0268     		ldr	r2, [r0]
 387              		.loc 1 191 5 view .LVU89
 388 0002 0B4B     		ldr	r3, .L30
 389 0004 9A42     		cmp	r2, r3
 390 0006 00D0     		beq	.L29
 391 0008 7047     		bx	lr
 392              	.L29:
 190:Src/stm32l4xx_hal_msp.c ****   if(hi2c->Instance==I2C2)
 393              		.loc 1 190 1 view .LVU90
 394 000a 10B5     		push	{r4, lr}
 395              	.LCFI11:
 396              		.cfi_def_cfa_offset 8
 397              		.cfi_offset 4, -8
ARM GAS  /tmp/ccREYZxX.s 			page 12


 398              		.cfi_offset 14, -4
 192:Src/stm32l4xx_hal_msp.c ****   {
 193:Src/stm32l4xx_hal_msp.c ****   /* USER CODE BEGIN I2C2_MspDeInit 0 */
 194:Src/stm32l4xx_hal_msp.c **** 
 195:Src/stm32l4xx_hal_msp.c ****   /* USER CODE END I2C2_MspDeInit 0 */
 196:Src/stm32l4xx_hal_msp.c ****     /* Peripheral clock disable */
 197:Src/stm32l4xx_hal_msp.c ****     __HAL_RCC_I2C2_CLK_DISABLE();
 399              		.loc 1 197 5 is_stmt 1 view .LVU91
 400 000c 094A     		ldr	r2, .L30+4
 401 000e 936D     		ldr	r3, [r2, #88]
 402 0010 23F48003 		bic	r3, r3, #4194304
 403 0014 9365     		str	r3, [r2, #88]
 198:Src/stm32l4xx_hal_msp.c **** 
 199:Src/stm32l4xx_hal_msp.c ****     /**I2C2 GPIO Configuration
 200:Src/stm32l4xx_hal_msp.c ****     PB10     ------> I2C2_SCL
 201:Src/stm32l4xx_hal_msp.c ****     PB11     ------> I2C2_SDA
 202:Src/stm32l4xx_hal_msp.c ****     */
 203:Src/stm32l4xx_hal_msp.c ****     HAL_GPIO_DeInit(GPIOB, GPIO_PIN_10);
 404              		.loc 1 203 5 view .LVU92
 405 0016 084C     		ldr	r4, .L30+8
 406 0018 4FF48061 		mov	r1, #1024
 407 001c 2046     		mov	r0, r4
 408              	.LVL16:
 409              		.loc 1 203 5 is_stmt 0 view .LVU93
 410 001e FFF7FEFF 		bl	HAL_GPIO_DeInit
 411              	.LVL17:
 204:Src/stm32l4xx_hal_msp.c **** 
 205:Src/stm32l4xx_hal_msp.c ****     HAL_GPIO_DeInit(GPIOB, GPIO_PIN_11);
 412              		.loc 1 205 5 is_stmt 1 view .LVU94
 413 0022 4FF40061 		mov	r1, #2048
 414 0026 2046     		mov	r0, r4
 415 0028 FFF7FEFF 		bl	HAL_GPIO_DeInit
 416              	.LVL18:
 206:Src/stm32l4xx_hal_msp.c **** 
 207:Src/stm32l4xx_hal_msp.c ****   /* USER CODE BEGIN I2C2_MspDeInit 1 */
 208:Src/stm32l4xx_hal_msp.c **** 
 209:Src/stm32l4xx_hal_msp.c ****   /* USER CODE END I2C2_MspDeInit 1 */
 210:Src/stm32l4xx_hal_msp.c ****   }
 211:Src/stm32l4xx_hal_msp.c **** 
 212:Src/stm32l4xx_hal_msp.c **** }
 417              		.loc 1 212 1 is_stmt 0 view .LVU95
 418 002c 10BD     		pop	{r4, pc}
 419              	.L31:
 420 002e 00BF     		.align	2
 421              	.L30:
 422 0030 00580040 		.word	1073764352
 423 0034 00100240 		.word	1073876992
 424 0038 00040048 		.word	1207960576
 425              		.cfi_endproc
 426              	.LFE296:
 428              		.section	.text.HAL_SPI_MspInit,"ax",%progbits
 429              		.align	1
 430              		.global	HAL_SPI_MspInit
 431              		.syntax unified
 432              		.thumb
 433              		.thumb_func
 434              		.fpu fpv4-sp-d16
ARM GAS  /tmp/ccREYZxX.s 			page 13


 436              	HAL_SPI_MspInit:
 437              	.LVL19:
 438              	.LFB297:
 213:Src/stm32l4xx_hal_msp.c **** 
 214:Src/stm32l4xx_hal_msp.c **** /**
 215:Src/stm32l4xx_hal_msp.c **** * @brief SPI MSP Initialization
 216:Src/stm32l4xx_hal_msp.c **** * This function configures the hardware resources used in this example
 217:Src/stm32l4xx_hal_msp.c **** * @param hspi: SPI handle pointer
 218:Src/stm32l4xx_hal_msp.c **** * @retval None
 219:Src/stm32l4xx_hal_msp.c **** */
 220:Src/stm32l4xx_hal_msp.c **** void HAL_SPI_MspInit(SPI_HandleTypeDef* hspi)
 221:Src/stm32l4xx_hal_msp.c **** {
 439              		.loc 1 221 1 is_stmt 1 view -0
 440              		.cfi_startproc
 441              		@ args = 0, pretend = 0, frame = 32
 442              		@ frame_needed = 0, uses_anonymous_args = 0
 443              		.loc 1 221 1 is_stmt 0 view .LVU97
 444 0000 00B5     		push	{lr}
 445              	.LCFI12:
 446              		.cfi_def_cfa_offset 4
 447              		.cfi_offset 14, -4
 448 0002 89B0     		sub	sp, sp, #36
 449              	.LCFI13:
 450              		.cfi_def_cfa_offset 40
 222:Src/stm32l4xx_hal_msp.c ****   GPIO_InitTypeDef GPIO_InitStruct = {0};
 451              		.loc 1 222 3 is_stmt 1 view .LVU98
 452              		.loc 1 222 20 is_stmt 0 view .LVU99
 453 0004 0023     		movs	r3, #0
 454 0006 0393     		str	r3, [sp, #12]
 455 0008 0493     		str	r3, [sp, #16]
 456 000a 0593     		str	r3, [sp, #20]
 457 000c 0693     		str	r3, [sp, #24]
 458 000e 0793     		str	r3, [sp, #28]
 223:Src/stm32l4xx_hal_msp.c ****   if(hspi->Instance==SPI2)
 459              		.loc 1 223 3 is_stmt 1 view .LVU100
 460              		.loc 1 223 10 is_stmt 0 view .LVU101
 461 0010 0268     		ldr	r2, [r0]
 462              		.loc 1 223 5 view .LVU102
 463 0012 154B     		ldr	r3, .L36
 464 0014 9A42     		cmp	r2, r3
 465 0016 02D0     		beq	.L35
 466              	.LVL20:
 467              	.L32:
 224:Src/stm32l4xx_hal_msp.c ****   {
 225:Src/stm32l4xx_hal_msp.c ****   /* USER CODE BEGIN SPI2_MspInit 0 */
 226:Src/stm32l4xx_hal_msp.c **** 
 227:Src/stm32l4xx_hal_msp.c ****   /* USER CODE END SPI2_MspInit 0 */
 228:Src/stm32l4xx_hal_msp.c ****     /* Peripheral clock enable */
 229:Src/stm32l4xx_hal_msp.c ****     __HAL_RCC_SPI2_CLK_ENABLE();
 230:Src/stm32l4xx_hal_msp.c **** 
 231:Src/stm32l4xx_hal_msp.c ****     __HAL_RCC_GPIOB_CLK_ENABLE();
 232:Src/stm32l4xx_hal_msp.c ****     /**SPI2 GPIO Configuration
 233:Src/stm32l4xx_hal_msp.c ****     PB13     ------> SPI2_SCK
 234:Src/stm32l4xx_hal_msp.c ****     PB14     ------> SPI2_MISO
 235:Src/stm32l4xx_hal_msp.c ****     PB15     ------> SPI2_MOSI
 236:Src/stm32l4xx_hal_msp.c ****     */
 237:Src/stm32l4xx_hal_msp.c ****     GPIO_InitStruct.Pin = GPIO_PIN_13|GPIO_PIN_14|GPIO_PIN_15;
ARM GAS  /tmp/ccREYZxX.s 			page 14


 238:Src/stm32l4xx_hal_msp.c ****     GPIO_InitStruct.Mode = GPIO_MODE_AF_PP;
 239:Src/stm32l4xx_hal_msp.c ****     GPIO_InitStruct.Pull = GPIO_NOPULL;
 240:Src/stm32l4xx_hal_msp.c ****     GPIO_InitStruct.Speed = GPIO_SPEED_FREQ_VERY_HIGH;
 241:Src/stm32l4xx_hal_msp.c ****     GPIO_InitStruct.Alternate = GPIO_AF5_SPI2;
 242:Src/stm32l4xx_hal_msp.c ****     HAL_GPIO_Init(GPIOB, &GPIO_InitStruct);
 243:Src/stm32l4xx_hal_msp.c **** 
 244:Src/stm32l4xx_hal_msp.c ****   /* USER CODE BEGIN SPI2_MspInit 1 */
 245:Src/stm32l4xx_hal_msp.c **** 
 246:Src/stm32l4xx_hal_msp.c ****   /* USER CODE END SPI2_MspInit 1 */
 247:Src/stm32l4xx_hal_msp.c ****   }
 248:Src/stm32l4xx_hal_msp.c **** 
 249:Src/stm32l4xx_hal_msp.c **** }
 468              		.loc 1 249 1 view .LVU103
 469 0018 09B0     		add	sp, sp, #36
 470              	.LCFI14:
 471              		.cfi_remember_state
 472              		.cfi_def_cfa_offset 4
 473              		@ sp needed
 474 001a 5DF804FB 		ldr	pc, [sp], #4
 475              	.LVL21:
 476              	.L35:
 477              	.LCFI15:
 478              		.cfi_restore_state
 229:Src/stm32l4xx_hal_msp.c **** 
 479              		.loc 1 229 5 is_stmt 1 view .LVU104
 480              	.LBB8:
 229:Src/stm32l4xx_hal_msp.c **** 
 481              		.loc 1 229 5 view .LVU105
 229:Src/stm32l4xx_hal_msp.c **** 
 482              		.loc 1 229 5 view .LVU106
 483 001e 03F5EC33 		add	r3, r3, #120832
 484 0022 9A6D     		ldr	r2, [r3, #88]
 485 0024 42F48042 		orr	r2, r2, #16384
 486 0028 9A65     		str	r2, [r3, #88]
 229:Src/stm32l4xx_hal_msp.c **** 
 487              		.loc 1 229 5 view .LVU107
 488 002a 9A6D     		ldr	r2, [r3, #88]
 489 002c 02F48042 		and	r2, r2, #16384
 490 0030 0192     		str	r2, [sp, #4]
 229:Src/stm32l4xx_hal_msp.c **** 
 491              		.loc 1 229 5 view .LVU108
 492 0032 019A     		ldr	r2, [sp, #4]
 493              	.LBE8:
 229:Src/stm32l4xx_hal_msp.c **** 
 494              		.loc 1 229 5 view .LVU109
 231:Src/stm32l4xx_hal_msp.c ****     /**SPI2 GPIO Configuration
 495              		.loc 1 231 5 view .LVU110
 496              	.LBB9:
 231:Src/stm32l4xx_hal_msp.c ****     /**SPI2 GPIO Configuration
 497              		.loc 1 231 5 view .LVU111
 231:Src/stm32l4xx_hal_msp.c ****     /**SPI2 GPIO Configuration
 498              		.loc 1 231 5 view .LVU112
 499 0034 DA6C     		ldr	r2, [r3, #76]
 500 0036 42F00202 		orr	r2, r2, #2
 501 003a DA64     		str	r2, [r3, #76]
 231:Src/stm32l4xx_hal_msp.c ****     /**SPI2 GPIO Configuration
 502              		.loc 1 231 5 view .LVU113
ARM GAS  /tmp/ccREYZxX.s 			page 15


 503 003c DB6C     		ldr	r3, [r3, #76]
 504 003e 03F00203 		and	r3, r3, #2
 505 0042 0293     		str	r3, [sp, #8]
 231:Src/stm32l4xx_hal_msp.c ****     /**SPI2 GPIO Configuration
 506              		.loc 1 231 5 view .LVU114
 507 0044 029B     		ldr	r3, [sp, #8]
 508              	.LBE9:
 231:Src/stm32l4xx_hal_msp.c ****     /**SPI2 GPIO Configuration
 509              		.loc 1 231 5 view .LVU115
 237:Src/stm32l4xx_hal_msp.c ****     GPIO_InitStruct.Mode = GPIO_MODE_AF_PP;
 510              		.loc 1 237 5 view .LVU116
 237:Src/stm32l4xx_hal_msp.c ****     GPIO_InitStruct.Mode = GPIO_MODE_AF_PP;
 511              		.loc 1 237 25 is_stmt 0 view .LVU117
 512 0046 4FF46043 		mov	r3, #57344
 513 004a 0393     		str	r3, [sp, #12]
 238:Src/stm32l4xx_hal_msp.c ****     GPIO_InitStruct.Pull = GPIO_NOPULL;
 514              		.loc 1 238 5 is_stmt 1 view .LVU118
 238:Src/stm32l4xx_hal_msp.c ****     GPIO_InitStruct.Pull = GPIO_NOPULL;
 515              		.loc 1 238 26 is_stmt 0 view .LVU119
 516 004c 0223     		movs	r3, #2
 517 004e 0493     		str	r3, [sp, #16]
 239:Src/stm32l4xx_hal_msp.c ****     GPIO_InitStruct.Speed = GPIO_SPEED_FREQ_VERY_HIGH;
 518              		.loc 1 239 5 is_stmt 1 view .LVU120
 239:Src/stm32l4xx_hal_msp.c ****     GPIO_InitStruct.Speed = GPIO_SPEED_FREQ_VERY_HIGH;
 519              		.loc 1 239 26 is_stmt 0 view .LVU121
 520 0050 0023     		movs	r3, #0
 521 0052 0593     		str	r3, [sp, #20]
 240:Src/stm32l4xx_hal_msp.c ****     GPIO_InitStruct.Alternate = GPIO_AF5_SPI2;
 522              		.loc 1 240 5 is_stmt 1 view .LVU122
 240:Src/stm32l4xx_hal_msp.c ****     GPIO_InitStruct.Alternate = GPIO_AF5_SPI2;
 523              		.loc 1 240 27 is_stmt 0 view .LVU123
 524 0054 0323     		movs	r3, #3
 525 0056 0693     		str	r3, [sp, #24]
 241:Src/stm32l4xx_hal_msp.c ****     HAL_GPIO_Init(GPIOB, &GPIO_InitStruct);
 526              		.loc 1 241 5 is_stmt 1 view .LVU124
 241:Src/stm32l4xx_hal_msp.c ****     HAL_GPIO_Init(GPIOB, &GPIO_InitStruct);
 527              		.loc 1 241 31 is_stmt 0 view .LVU125
 528 0058 0523     		movs	r3, #5
 529 005a 0793     		str	r3, [sp, #28]
 242:Src/stm32l4xx_hal_msp.c **** 
 530              		.loc 1 242 5 is_stmt 1 view .LVU126
 531 005c 03A9     		add	r1, sp, #12
 532 005e 0348     		ldr	r0, .L36+4
 533              	.LVL22:
 242:Src/stm32l4xx_hal_msp.c **** 
 534              		.loc 1 242 5 is_stmt 0 view .LVU127
 535 0060 FFF7FEFF 		bl	HAL_GPIO_Init
 536              	.LVL23:
 537              		.loc 1 249 1 view .LVU128
 538 0064 D8E7     		b	.L32
 539              	.L37:
 540 0066 00BF     		.align	2
 541              	.L36:
 542 0068 00380040 		.word	1073756160
 543 006c 00040048 		.word	1207960576
 544              		.cfi_endproc
 545              	.LFE297:
ARM GAS  /tmp/ccREYZxX.s 			page 16


 547              		.section	.text.HAL_SPI_MspDeInit,"ax",%progbits
 548              		.align	1
 549              		.global	HAL_SPI_MspDeInit
 550              		.syntax unified
 551              		.thumb
 552              		.thumb_func
 553              		.fpu fpv4-sp-d16
 555              	HAL_SPI_MspDeInit:
 556              	.LVL24:
 557              	.LFB298:
 250:Src/stm32l4xx_hal_msp.c **** 
 251:Src/stm32l4xx_hal_msp.c **** /**
 252:Src/stm32l4xx_hal_msp.c **** * @brief SPI MSP De-Initialization
 253:Src/stm32l4xx_hal_msp.c **** * This function freeze the hardware resources used in this example
 254:Src/stm32l4xx_hal_msp.c **** * @param hspi: SPI handle pointer
 255:Src/stm32l4xx_hal_msp.c **** * @retval None
 256:Src/stm32l4xx_hal_msp.c **** */
 257:Src/stm32l4xx_hal_msp.c **** void HAL_SPI_MspDeInit(SPI_HandleTypeDef* hspi)
 258:Src/stm32l4xx_hal_msp.c **** {
 558              		.loc 1 258 1 is_stmt 1 view -0
 559              		.cfi_startproc
 560              		@ args = 0, pretend = 0, frame = 0
 561              		@ frame_needed = 0, uses_anonymous_args = 0
 562              		.loc 1 258 1 is_stmt 0 view .LVU130
 563 0000 08B5     		push	{r3, lr}
 564              	.LCFI16:
 565              		.cfi_def_cfa_offset 8
 566              		.cfi_offset 3, -8
 567              		.cfi_offset 14, -4
 259:Src/stm32l4xx_hal_msp.c ****   if(hspi->Instance==SPI2)
 568              		.loc 1 259 3 is_stmt 1 view .LVU131
 569              		.loc 1 259 10 is_stmt 0 view .LVU132
 570 0002 0268     		ldr	r2, [r0]
 571              		.loc 1 259 5 view .LVU133
 572 0004 074B     		ldr	r3, .L42
 573 0006 9A42     		cmp	r2, r3
 574 0008 00D0     		beq	.L41
 575              	.LVL25:
 576              	.L38:
 260:Src/stm32l4xx_hal_msp.c ****   {
 261:Src/stm32l4xx_hal_msp.c ****   /* USER CODE BEGIN SPI2_MspDeInit 0 */
 262:Src/stm32l4xx_hal_msp.c **** 
 263:Src/stm32l4xx_hal_msp.c ****   /* USER CODE END SPI2_MspDeInit 0 */
 264:Src/stm32l4xx_hal_msp.c ****     /* Peripheral clock disable */
 265:Src/stm32l4xx_hal_msp.c ****     __HAL_RCC_SPI2_CLK_DISABLE();
 266:Src/stm32l4xx_hal_msp.c **** 
 267:Src/stm32l4xx_hal_msp.c ****     /**SPI2 GPIO Configuration
 268:Src/stm32l4xx_hal_msp.c ****     PB13     ------> SPI2_SCK
 269:Src/stm32l4xx_hal_msp.c ****     PB14     ------> SPI2_MISO
 270:Src/stm32l4xx_hal_msp.c ****     PB15     ------> SPI2_MOSI
 271:Src/stm32l4xx_hal_msp.c ****     */
 272:Src/stm32l4xx_hal_msp.c ****     HAL_GPIO_DeInit(GPIOB, GPIO_PIN_13|GPIO_PIN_14|GPIO_PIN_15);
 273:Src/stm32l4xx_hal_msp.c **** 
 274:Src/stm32l4xx_hal_msp.c ****   /* USER CODE BEGIN SPI2_MspDeInit 1 */
 275:Src/stm32l4xx_hal_msp.c **** 
 276:Src/stm32l4xx_hal_msp.c ****   /* USER CODE END SPI2_MspDeInit 1 */
 277:Src/stm32l4xx_hal_msp.c ****   }
ARM GAS  /tmp/ccREYZxX.s 			page 17


 278:Src/stm32l4xx_hal_msp.c **** 
 279:Src/stm32l4xx_hal_msp.c **** }
 577              		.loc 1 279 1 view .LVU134
 578 000a 08BD     		pop	{r3, pc}
 579              	.LVL26:
 580              	.L41:
 265:Src/stm32l4xx_hal_msp.c **** 
 581              		.loc 1 265 5 is_stmt 1 view .LVU135
 582 000c 064A     		ldr	r2, .L42+4
 583 000e 936D     		ldr	r3, [r2, #88]
 584 0010 23F48043 		bic	r3, r3, #16384
 585 0014 9365     		str	r3, [r2, #88]
 272:Src/stm32l4xx_hal_msp.c **** 
 586              		.loc 1 272 5 view .LVU136
 587 0016 4FF46041 		mov	r1, #57344
 588 001a 0448     		ldr	r0, .L42+8
 589              	.LVL27:
 272:Src/stm32l4xx_hal_msp.c **** 
 590              		.loc 1 272 5 is_stmt 0 view .LVU137
 591 001c FFF7FEFF 		bl	HAL_GPIO_DeInit
 592              	.LVL28:
 593              		.loc 1 279 1 view .LVU138
 594 0020 F3E7     		b	.L38
 595              	.L43:
 596 0022 00BF     		.align	2
 597              	.L42:
 598 0024 00380040 		.word	1073756160
 599 0028 00100240 		.word	1073876992
 600 002c 00040048 		.word	1207960576
 601              		.cfi_endproc
 602              	.LFE298:
 604              		.section	.text.HAL_TIM_Base_MspInit,"ax",%progbits
 605              		.align	1
 606              		.global	HAL_TIM_Base_MspInit
 607              		.syntax unified
 608              		.thumb
 609              		.thumb_func
 610              		.fpu fpv4-sp-d16
 612              	HAL_TIM_Base_MspInit:
 613              	.LVL29:
 614              	.LFB299:
 280:Src/stm32l4xx_hal_msp.c **** 
 281:Src/stm32l4xx_hal_msp.c **** /**
 282:Src/stm32l4xx_hal_msp.c **** * @brief TIM_Base MSP Initialization
 283:Src/stm32l4xx_hal_msp.c **** * This function configures the hardware resources used in this example
 284:Src/stm32l4xx_hal_msp.c **** * @param htim_base: TIM_Base handle pointer
 285:Src/stm32l4xx_hal_msp.c **** * @retval None
 286:Src/stm32l4xx_hal_msp.c **** */
 287:Src/stm32l4xx_hal_msp.c **** void HAL_TIM_Base_MspInit(TIM_HandleTypeDef* htim_base)
 288:Src/stm32l4xx_hal_msp.c **** {
 615              		.loc 1 288 1 is_stmt 1 view -0
 616              		.cfi_startproc
 617              		@ args = 0, pretend = 0, frame = 8
 618              		@ frame_needed = 0, uses_anonymous_args = 0
 619              		@ link register save eliminated.
 620              		.loc 1 288 1 is_stmt 0 view .LVU140
 621 0000 82B0     		sub	sp, sp, #8
ARM GAS  /tmp/ccREYZxX.s 			page 18


 622              	.LCFI17:
 623              		.cfi_def_cfa_offset 8
 289:Src/stm32l4xx_hal_msp.c ****   if(htim_base->Instance==TIM2)
 624              		.loc 1 289 3 is_stmt 1 view .LVU141
 625              		.loc 1 289 15 is_stmt 0 view .LVU142
 626 0002 0368     		ldr	r3, [r0]
 627              		.loc 1 289 5 view .LVU143
 628 0004 B3F1804F 		cmp	r3, #1073741824
 629 0008 04D0     		beq	.L48
 290:Src/stm32l4xx_hal_msp.c ****   {
 291:Src/stm32l4xx_hal_msp.c ****   /* USER CODE BEGIN TIM2_MspInit 0 */
 292:Src/stm32l4xx_hal_msp.c **** 
 293:Src/stm32l4xx_hal_msp.c ****   /* USER CODE END TIM2_MspInit 0 */
 294:Src/stm32l4xx_hal_msp.c ****     /* Peripheral clock enable */
 295:Src/stm32l4xx_hal_msp.c ****     __HAL_RCC_TIM2_CLK_ENABLE();
 296:Src/stm32l4xx_hal_msp.c ****   /* USER CODE BEGIN TIM2_MspInit 1 */
 297:Src/stm32l4xx_hal_msp.c **** 
 298:Src/stm32l4xx_hal_msp.c ****   /* USER CODE END TIM2_MspInit 1 */
 299:Src/stm32l4xx_hal_msp.c ****   }
 300:Src/stm32l4xx_hal_msp.c ****   else if(htim_base->Instance==TIM3)
 630              		.loc 1 300 8 is_stmt 1 view .LVU144
 631              		.loc 1 300 10 is_stmt 0 view .LVU145
 632 000a 0E4A     		ldr	r2, .L50
 633 000c 9342     		cmp	r3, r2
 634 000e 0DD0     		beq	.L49
 635              	.L44:
 301:Src/stm32l4xx_hal_msp.c ****   {
 302:Src/stm32l4xx_hal_msp.c ****   /* USER CODE BEGIN TIM3_MspInit 0 */
 303:Src/stm32l4xx_hal_msp.c **** 
 304:Src/stm32l4xx_hal_msp.c ****   /* USER CODE END TIM3_MspInit 0 */
 305:Src/stm32l4xx_hal_msp.c ****     /* Peripheral clock enable */
 306:Src/stm32l4xx_hal_msp.c ****     __HAL_RCC_TIM3_CLK_ENABLE();
 307:Src/stm32l4xx_hal_msp.c ****   /* USER CODE BEGIN TIM3_MspInit 1 */
 308:Src/stm32l4xx_hal_msp.c **** 
 309:Src/stm32l4xx_hal_msp.c ****   /* USER CODE END TIM3_MspInit 1 */
 310:Src/stm32l4xx_hal_msp.c ****   }
 311:Src/stm32l4xx_hal_msp.c **** 
 312:Src/stm32l4xx_hal_msp.c **** }
 636              		.loc 1 312 1 view .LVU146
 637 0010 02B0     		add	sp, sp, #8
 638              	.LCFI18:
 639              		.cfi_remember_state
 640              		.cfi_def_cfa_offset 0
 641              		@ sp needed
 642 0012 7047     		bx	lr
 643              	.L48:
 644              	.LCFI19:
 645              		.cfi_restore_state
 295:Src/stm32l4xx_hal_msp.c ****   /* USER CODE BEGIN TIM2_MspInit 1 */
 646              		.loc 1 295 5 is_stmt 1 view .LVU147
 647              	.LBB10:
 295:Src/stm32l4xx_hal_msp.c ****   /* USER CODE BEGIN TIM2_MspInit 1 */
 648              		.loc 1 295 5 view .LVU148
 295:Src/stm32l4xx_hal_msp.c ****   /* USER CODE BEGIN TIM2_MspInit 1 */
 649              		.loc 1 295 5 view .LVU149
 650 0014 03F50433 		add	r3, r3, #135168
 651 0018 9A6D     		ldr	r2, [r3, #88]
ARM GAS  /tmp/ccREYZxX.s 			page 19


 652 001a 42F00102 		orr	r2, r2, #1
 653 001e 9A65     		str	r2, [r3, #88]
 295:Src/stm32l4xx_hal_msp.c ****   /* USER CODE BEGIN TIM2_MspInit 1 */
 654              		.loc 1 295 5 view .LVU150
 655 0020 9B6D     		ldr	r3, [r3, #88]
 656 0022 03F00103 		and	r3, r3, #1
 657 0026 0093     		str	r3, [sp]
 295:Src/stm32l4xx_hal_msp.c ****   /* USER CODE BEGIN TIM2_MspInit 1 */
 658              		.loc 1 295 5 view .LVU151
 659 0028 009B     		ldr	r3, [sp]
 660              	.LBE10:
 295:Src/stm32l4xx_hal_msp.c ****   /* USER CODE BEGIN TIM2_MspInit 1 */
 661              		.loc 1 295 5 view .LVU152
 662 002a F1E7     		b	.L44
 663              	.L49:
 306:Src/stm32l4xx_hal_msp.c ****   /* USER CODE BEGIN TIM3_MspInit 1 */
 664              		.loc 1 306 5 view .LVU153
 665              	.LBB11:
 306:Src/stm32l4xx_hal_msp.c ****   /* USER CODE BEGIN TIM3_MspInit 1 */
 666              		.loc 1 306 5 view .LVU154
 306:Src/stm32l4xx_hal_msp.c ****   /* USER CODE BEGIN TIM3_MspInit 1 */
 667              		.loc 1 306 5 view .LVU155
 668 002c 064B     		ldr	r3, .L50+4
 669 002e 9A6D     		ldr	r2, [r3, #88]
 670 0030 42F00202 		orr	r2, r2, #2
 671 0034 9A65     		str	r2, [r3, #88]
 306:Src/stm32l4xx_hal_msp.c ****   /* USER CODE BEGIN TIM3_MspInit 1 */
 672              		.loc 1 306 5 view .LVU156
 673 0036 9B6D     		ldr	r3, [r3, #88]
 674 0038 03F00203 		and	r3, r3, #2
 675 003c 0193     		str	r3, [sp, #4]
 306:Src/stm32l4xx_hal_msp.c ****   /* USER CODE BEGIN TIM3_MspInit 1 */
 676              		.loc 1 306 5 view .LVU157
 677 003e 019B     		ldr	r3, [sp, #4]
 678              	.LBE11:
 306:Src/stm32l4xx_hal_msp.c ****   /* USER CODE BEGIN TIM3_MspInit 1 */
 679              		.loc 1 306 5 view .LVU158
 680              		.loc 1 312 1 is_stmt 0 view .LVU159
 681 0040 E6E7     		b	.L44
 682              	.L51:
 683 0042 00BF     		.align	2
 684              	.L50:
 685 0044 00040040 		.word	1073742848
 686 0048 00100240 		.word	1073876992
 687              		.cfi_endproc
 688              	.LFE299:
 690              		.section	.text.HAL_TIM_MspPostInit,"ax",%progbits
 691              		.align	1
 692              		.global	HAL_TIM_MspPostInit
 693              		.syntax unified
 694              		.thumb
 695              		.thumb_func
 696              		.fpu fpv4-sp-d16
 698              	HAL_TIM_MspPostInit:
 699              	.LVL30:
 700              	.LFB300:
 313:Src/stm32l4xx_hal_msp.c **** 
ARM GAS  /tmp/ccREYZxX.s 			page 20


 314:Src/stm32l4xx_hal_msp.c **** void HAL_TIM_MspPostInit(TIM_HandleTypeDef* htim)
 315:Src/stm32l4xx_hal_msp.c **** {
 701              		.loc 1 315 1 is_stmt 1 view -0
 702              		.cfi_startproc
 703              		@ args = 0, pretend = 0, frame = 24
 704              		@ frame_needed = 0, uses_anonymous_args = 0
 705              		.loc 1 315 1 is_stmt 0 view .LVU161
 706 0000 00B5     		push	{lr}
 707              	.LCFI20:
 708              		.cfi_def_cfa_offset 4
 709              		.cfi_offset 14, -4
 710 0002 87B0     		sub	sp, sp, #28
 711              	.LCFI21:
 712              		.cfi_def_cfa_offset 32
 316:Src/stm32l4xx_hal_msp.c ****   GPIO_InitTypeDef GPIO_InitStruct = {0};
 713              		.loc 1 316 3 is_stmt 1 view .LVU162
 714              		.loc 1 316 20 is_stmt 0 view .LVU163
 715 0004 0023     		movs	r3, #0
 716 0006 0193     		str	r3, [sp, #4]
 717 0008 0293     		str	r3, [sp, #8]
 718 000a 0393     		str	r3, [sp, #12]
 719 000c 0493     		str	r3, [sp, #16]
 720 000e 0593     		str	r3, [sp, #20]
 317:Src/stm32l4xx_hal_msp.c ****   if(htim->Instance==TIM3)
 721              		.loc 1 317 3 is_stmt 1 view .LVU164
 722              		.loc 1 317 10 is_stmt 0 view .LVU165
 723 0010 0268     		ldr	r2, [r0]
 724              		.loc 1 317 5 view .LVU166
 725 0012 0F4B     		ldr	r3, .L56
 726 0014 9A42     		cmp	r2, r3
 727 0016 02D0     		beq	.L55
 728              	.LVL31:
 729              	.L52:
 318:Src/stm32l4xx_hal_msp.c ****   {
 319:Src/stm32l4xx_hal_msp.c ****   /* USER CODE BEGIN TIM3_MspPostInit 0 */
 320:Src/stm32l4xx_hal_msp.c **** 
 321:Src/stm32l4xx_hal_msp.c ****   /* USER CODE END TIM3_MspPostInit 0 */
 322:Src/stm32l4xx_hal_msp.c **** 
 323:Src/stm32l4xx_hal_msp.c ****     __HAL_RCC_GPIOB_CLK_ENABLE();
 324:Src/stm32l4xx_hal_msp.c ****     /**TIM3 GPIO Configuration
 325:Src/stm32l4xx_hal_msp.c ****     PB4 (NJTRST)     ------> TIM3_CH1
 326:Src/stm32l4xx_hal_msp.c ****     */
 327:Src/stm32l4xx_hal_msp.c ****     GPIO_InitStruct.Pin = RGB_STAT_Pin;
 328:Src/stm32l4xx_hal_msp.c ****     GPIO_InitStruct.Mode = GPIO_MODE_AF_PP;
 329:Src/stm32l4xx_hal_msp.c ****     GPIO_InitStruct.Pull = GPIO_NOPULL;
 330:Src/stm32l4xx_hal_msp.c ****     GPIO_InitStruct.Speed = GPIO_SPEED_FREQ_LOW;
 331:Src/stm32l4xx_hal_msp.c ****     GPIO_InitStruct.Alternate = GPIO_AF2_TIM3;
 332:Src/stm32l4xx_hal_msp.c ****     HAL_GPIO_Init(RGB_STAT_GPIO_Port, &GPIO_InitStruct);
 333:Src/stm32l4xx_hal_msp.c **** 
 334:Src/stm32l4xx_hal_msp.c ****   /* USER CODE BEGIN TIM3_MspPostInit 1 */
 335:Src/stm32l4xx_hal_msp.c **** 
 336:Src/stm32l4xx_hal_msp.c ****   /* USER CODE END TIM3_MspPostInit 1 */
 337:Src/stm32l4xx_hal_msp.c ****   }
 338:Src/stm32l4xx_hal_msp.c **** 
 339:Src/stm32l4xx_hal_msp.c **** }
 730              		.loc 1 339 1 view .LVU167
 731 0018 07B0     		add	sp, sp, #28
ARM GAS  /tmp/ccREYZxX.s 			page 21


 732              	.LCFI22:
 733              		.cfi_remember_state
 734              		.cfi_def_cfa_offset 4
 735              		@ sp needed
 736 001a 5DF804FB 		ldr	pc, [sp], #4
 737              	.LVL32:
 738              	.L55:
 739              	.LCFI23:
 740              		.cfi_restore_state
 323:Src/stm32l4xx_hal_msp.c ****     /**TIM3 GPIO Configuration
 741              		.loc 1 323 5 is_stmt 1 view .LVU168
 742              	.LBB12:
 323:Src/stm32l4xx_hal_msp.c ****     /**TIM3 GPIO Configuration
 743              		.loc 1 323 5 view .LVU169
 323:Src/stm32l4xx_hal_msp.c ****     /**TIM3 GPIO Configuration
 744              		.loc 1 323 5 view .LVU170
 745 001e 03F50333 		add	r3, r3, #134144
 746 0022 DA6C     		ldr	r2, [r3, #76]
 747 0024 42F00202 		orr	r2, r2, #2
 748 0028 DA64     		str	r2, [r3, #76]
 323:Src/stm32l4xx_hal_msp.c ****     /**TIM3 GPIO Configuration
 749              		.loc 1 323 5 view .LVU171
 750 002a DB6C     		ldr	r3, [r3, #76]
 751 002c 03F00203 		and	r3, r3, #2
 752 0030 0093     		str	r3, [sp]
 323:Src/stm32l4xx_hal_msp.c ****     /**TIM3 GPIO Configuration
 753              		.loc 1 323 5 view .LVU172
 754 0032 009B     		ldr	r3, [sp]
 755              	.LBE12:
 323:Src/stm32l4xx_hal_msp.c ****     /**TIM3 GPIO Configuration
 756              		.loc 1 323 5 view .LVU173
 327:Src/stm32l4xx_hal_msp.c ****     GPIO_InitStruct.Mode = GPIO_MODE_AF_PP;
 757              		.loc 1 327 5 view .LVU174
 327:Src/stm32l4xx_hal_msp.c ****     GPIO_InitStruct.Mode = GPIO_MODE_AF_PP;
 758              		.loc 1 327 25 is_stmt 0 view .LVU175
 759 0034 1023     		movs	r3, #16
 760 0036 0193     		str	r3, [sp, #4]
 328:Src/stm32l4xx_hal_msp.c ****     GPIO_InitStruct.Pull = GPIO_NOPULL;
 761              		.loc 1 328 5 is_stmt 1 view .LVU176
 328:Src/stm32l4xx_hal_msp.c ****     GPIO_InitStruct.Pull = GPIO_NOPULL;
 762              		.loc 1 328 26 is_stmt 0 view .LVU177
 763 0038 0223     		movs	r3, #2
 764 003a 0293     		str	r3, [sp, #8]
 329:Src/stm32l4xx_hal_msp.c ****     GPIO_InitStruct.Speed = GPIO_SPEED_FREQ_LOW;
 765              		.loc 1 329 5 is_stmt 1 view .LVU178
 329:Src/stm32l4xx_hal_msp.c ****     GPIO_InitStruct.Speed = GPIO_SPEED_FREQ_LOW;
 766              		.loc 1 329 26 is_stmt 0 view .LVU179
 767 003c 0022     		movs	r2, #0
 768 003e 0392     		str	r2, [sp, #12]
 330:Src/stm32l4xx_hal_msp.c ****     GPIO_InitStruct.Alternate = GPIO_AF2_TIM3;
 769              		.loc 1 330 5 is_stmt 1 view .LVU180
 330:Src/stm32l4xx_hal_msp.c ****     GPIO_InitStruct.Alternate = GPIO_AF2_TIM3;
 770              		.loc 1 330 27 is_stmt 0 view .LVU181
 771 0040 0492     		str	r2, [sp, #16]
 331:Src/stm32l4xx_hal_msp.c ****     HAL_GPIO_Init(RGB_STAT_GPIO_Port, &GPIO_InitStruct);
 772              		.loc 1 331 5 is_stmt 1 view .LVU182
 331:Src/stm32l4xx_hal_msp.c ****     HAL_GPIO_Init(RGB_STAT_GPIO_Port, &GPIO_InitStruct);
ARM GAS  /tmp/ccREYZxX.s 			page 22


 773              		.loc 1 331 31 is_stmt 0 view .LVU183
 774 0042 0593     		str	r3, [sp, #20]
 332:Src/stm32l4xx_hal_msp.c **** 
 775              		.loc 1 332 5 is_stmt 1 view .LVU184
 776 0044 01A9     		add	r1, sp, #4
 777 0046 0348     		ldr	r0, .L56+4
 778              	.LVL33:
 332:Src/stm32l4xx_hal_msp.c **** 
 779              		.loc 1 332 5 is_stmt 0 view .LVU185
 780 0048 FFF7FEFF 		bl	HAL_GPIO_Init
 781              	.LVL34:
 782              		.loc 1 339 1 view .LVU186
 783 004c E4E7     		b	.L52
 784              	.L57:
 785 004e 00BF     		.align	2
 786              	.L56:
 787 0050 00040040 		.word	1073742848
 788 0054 00040048 		.word	1207960576
 789              		.cfi_endproc
 790              	.LFE300:
 792              		.section	.text.HAL_TIM_Base_MspDeInit,"ax",%progbits
 793              		.align	1
 794              		.global	HAL_TIM_Base_MspDeInit
 795              		.syntax unified
 796              		.thumb
 797              		.thumb_func
 798              		.fpu fpv4-sp-d16
 800              	HAL_TIM_Base_MspDeInit:
 801              	.LVL35:
 802              	.LFB301:
 340:Src/stm32l4xx_hal_msp.c **** /**
 341:Src/stm32l4xx_hal_msp.c **** * @brief TIM_Base MSP De-Initialization
 342:Src/stm32l4xx_hal_msp.c **** * This function freeze the hardware resources used in this example
 343:Src/stm32l4xx_hal_msp.c **** * @param htim_base: TIM_Base handle pointer
 344:Src/stm32l4xx_hal_msp.c **** * @retval None
 345:Src/stm32l4xx_hal_msp.c **** */
 346:Src/stm32l4xx_hal_msp.c **** void HAL_TIM_Base_MspDeInit(TIM_HandleTypeDef* htim_base)
 347:Src/stm32l4xx_hal_msp.c **** {
 803              		.loc 1 347 1 is_stmt 1 view -0
 804              		.cfi_startproc
 805              		@ args = 0, pretend = 0, frame = 0
 806              		@ frame_needed = 0, uses_anonymous_args = 0
 807              		@ link register save eliminated.
 348:Src/stm32l4xx_hal_msp.c ****   if(htim_base->Instance==TIM2)
 808              		.loc 1 348 3 view .LVU188
 809              		.loc 1 348 15 is_stmt 0 view .LVU189
 810 0000 0368     		ldr	r3, [r0]
 811              		.loc 1 348 5 view .LVU190
 812 0002 B3F1804F 		cmp	r3, #1073741824
 813 0006 03D0     		beq	.L61
 349:Src/stm32l4xx_hal_msp.c ****   {
 350:Src/stm32l4xx_hal_msp.c ****   /* USER CODE BEGIN TIM2_MspDeInit 0 */
 351:Src/stm32l4xx_hal_msp.c **** 
 352:Src/stm32l4xx_hal_msp.c ****   /* USER CODE END TIM2_MspDeInit 0 */
 353:Src/stm32l4xx_hal_msp.c ****     /* Peripheral clock disable */
 354:Src/stm32l4xx_hal_msp.c ****     __HAL_RCC_TIM2_CLK_DISABLE();
 355:Src/stm32l4xx_hal_msp.c ****   /* USER CODE BEGIN TIM2_MspDeInit 1 */
ARM GAS  /tmp/ccREYZxX.s 			page 23


 356:Src/stm32l4xx_hal_msp.c **** 
 357:Src/stm32l4xx_hal_msp.c ****   /* USER CODE END TIM2_MspDeInit 1 */
 358:Src/stm32l4xx_hal_msp.c ****   }
 359:Src/stm32l4xx_hal_msp.c ****   else if(htim_base->Instance==TIM3)
 814              		.loc 1 359 8 is_stmt 1 view .LVU191
 815              		.loc 1 359 10 is_stmt 0 view .LVU192
 816 0008 084A     		ldr	r2, .L63
 817 000a 9342     		cmp	r3, r2
 818 000c 06D0     		beq	.L62
 819              	.L58:
 360:Src/stm32l4xx_hal_msp.c ****   {
 361:Src/stm32l4xx_hal_msp.c ****   /* USER CODE BEGIN TIM3_MspDeInit 0 */
 362:Src/stm32l4xx_hal_msp.c **** 
 363:Src/stm32l4xx_hal_msp.c ****   /* USER CODE END TIM3_MspDeInit 0 */
 364:Src/stm32l4xx_hal_msp.c ****     /* Peripheral clock disable */
 365:Src/stm32l4xx_hal_msp.c ****     __HAL_RCC_TIM3_CLK_DISABLE();
 366:Src/stm32l4xx_hal_msp.c ****   /* USER CODE BEGIN TIM3_MspDeInit 1 */
 367:Src/stm32l4xx_hal_msp.c **** 
 368:Src/stm32l4xx_hal_msp.c ****   /* USER CODE END TIM3_MspDeInit 1 */
 369:Src/stm32l4xx_hal_msp.c ****   }
 370:Src/stm32l4xx_hal_msp.c **** 
 371:Src/stm32l4xx_hal_msp.c **** }
 820              		.loc 1 371 1 view .LVU193
 821 000e 7047     		bx	lr
 822              	.L61:
 354:Src/stm32l4xx_hal_msp.c ****   /* USER CODE BEGIN TIM2_MspDeInit 1 */
 823              		.loc 1 354 5 is_stmt 1 view .LVU194
 824 0010 074A     		ldr	r2, .L63+4
 825 0012 936D     		ldr	r3, [r2, #88]
 826 0014 23F00103 		bic	r3, r3, #1
 827 0018 9365     		str	r3, [r2, #88]
 828 001a 7047     		bx	lr
 829              	.L62:
 365:Src/stm32l4xx_hal_msp.c ****   /* USER CODE BEGIN TIM3_MspDeInit 1 */
 830              		.loc 1 365 5 view .LVU195
 831 001c 02F50332 		add	r2, r2, #134144
 832 0020 936D     		ldr	r3, [r2, #88]
 833 0022 23F00203 		bic	r3, r3, #2
 834 0026 9365     		str	r3, [r2, #88]
 835              		.loc 1 371 1 is_stmt 0 view .LVU196
 836 0028 F1E7     		b	.L58
 837              	.L64:
 838 002a 00BF     		.align	2
 839              	.L63:
 840 002c 00040040 		.word	1073742848
 841 0030 00100240 		.word	1073876992
 842              		.cfi_endproc
 843              	.LFE301:
 845              		.section	.text.HAL_UART_MspInit,"ax",%progbits
 846              		.align	1
 847              		.global	HAL_UART_MspInit
 848              		.syntax unified
 849              		.thumb
 850              		.thumb_func
 851              		.fpu fpv4-sp-d16
 853              	HAL_UART_MspInit:
 854              	.LVL36:
ARM GAS  /tmp/ccREYZxX.s 			page 24


 855              	.LFB302:
 372:Src/stm32l4xx_hal_msp.c **** 
 373:Src/stm32l4xx_hal_msp.c **** /**
 374:Src/stm32l4xx_hal_msp.c **** * @brief UART MSP Initialization
 375:Src/stm32l4xx_hal_msp.c **** * This function configures the hardware resources used in this example
 376:Src/stm32l4xx_hal_msp.c **** * @param huart: UART handle pointer
 377:Src/stm32l4xx_hal_msp.c **** * @retval None
 378:Src/stm32l4xx_hal_msp.c **** */
 379:Src/stm32l4xx_hal_msp.c **** void HAL_UART_MspInit(UART_HandleTypeDef* huart)
 380:Src/stm32l4xx_hal_msp.c **** {
 856              		.loc 1 380 1 is_stmt 1 view -0
 857              		.cfi_startproc
 858              		@ args = 0, pretend = 0, frame = 32
 859              		@ frame_needed = 0, uses_anonymous_args = 0
 860              		.loc 1 380 1 is_stmt 0 view .LVU198
 861 0000 10B5     		push	{r4, lr}
 862              	.LCFI24:
 863              		.cfi_def_cfa_offset 8
 864              		.cfi_offset 4, -8
 865              		.cfi_offset 14, -4
 866 0002 88B0     		sub	sp, sp, #32
 867              	.LCFI25:
 868              		.cfi_def_cfa_offset 40
 381:Src/stm32l4xx_hal_msp.c ****   GPIO_InitTypeDef GPIO_InitStruct = {0};
 869              		.loc 1 381 3 is_stmt 1 view .LVU199
 870              		.loc 1 381 20 is_stmt 0 view .LVU200
 871 0004 0023     		movs	r3, #0
 872 0006 0393     		str	r3, [sp, #12]
 873 0008 0493     		str	r3, [sp, #16]
 874 000a 0593     		str	r3, [sp, #20]
 875 000c 0693     		str	r3, [sp, #24]
 876 000e 0793     		str	r3, [sp, #28]
 382:Src/stm32l4xx_hal_msp.c ****   if(huart->Instance==USART2)
 877              		.loc 1 382 3 is_stmt 1 view .LVU201
 878              		.loc 1 382 11 is_stmt 0 view .LVU202
 879 0010 0268     		ldr	r2, [r0]
 880              		.loc 1 382 5 view .LVU203
 881 0012 184B     		ldr	r3, .L69
 882 0014 9A42     		cmp	r2, r3
 883 0016 01D0     		beq	.L68
 884              	.LVL37:
 885              	.L65:
 383:Src/stm32l4xx_hal_msp.c ****   {
 384:Src/stm32l4xx_hal_msp.c ****   /* USER CODE BEGIN USART2_MspInit 0 */
 385:Src/stm32l4xx_hal_msp.c **** 
 386:Src/stm32l4xx_hal_msp.c ****   /* USER CODE END USART2_MspInit 0 */
 387:Src/stm32l4xx_hal_msp.c ****     /* Peripheral clock enable */
 388:Src/stm32l4xx_hal_msp.c ****     __HAL_RCC_USART2_CLK_ENABLE();
 389:Src/stm32l4xx_hal_msp.c **** 
 390:Src/stm32l4xx_hal_msp.c ****     __HAL_RCC_GPIOA_CLK_ENABLE();
 391:Src/stm32l4xx_hal_msp.c ****     /**USART2 GPIO Configuration
 392:Src/stm32l4xx_hal_msp.c ****     PA2     ------> USART2_TX
 393:Src/stm32l4xx_hal_msp.c ****     PA3     ------> USART2_RX
 394:Src/stm32l4xx_hal_msp.c ****     */
 395:Src/stm32l4xx_hal_msp.c ****     GPIO_InitStruct.Pin = GPIO_PIN_2|GPIO_PIN_3;
 396:Src/stm32l4xx_hal_msp.c ****     GPIO_InitStruct.Mode = GPIO_MODE_AF_PP;
 397:Src/stm32l4xx_hal_msp.c ****     GPIO_InitStruct.Pull = GPIO_NOPULL;
ARM GAS  /tmp/ccREYZxX.s 			page 25


 398:Src/stm32l4xx_hal_msp.c ****     GPIO_InitStruct.Speed = GPIO_SPEED_FREQ_VERY_HIGH;
 399:Src/stm32l4xx_hal_msp.c ****     GPIO_InitStruct.Alternate = GPIO_AF7_USART2;
 400:Src/stm32l4xx_hal_msp.c ****     HAL_GPIO_Init(GPIOA, &GPIO_InitStruct);
 401:Src/stm32l4xx_hal_msp.c **** 
 402:Src/stm32l4xx_hal_msp.c ****     /* USART2 interrupt Init */
 403:Src/stm32l4xx_hal_msp.c ****     HAL_NVIC_SetPriority(USART2_IRQn, 0, 0);
 404:Src/stm32l4xx_hal_msp.c ****     HAL_NVIC_EnableIRQ(USART2_IRQn);
 405:Src/stm32l4xx_hal_msp.c ****   /* USER CODE BEGIN USART2_MspInit 1 */
 406:Src/stm32l4xx_hal_msp.c **** 
 407:Src/stm32l4xx_hal_msp.c ****   /* USER CODE END USART2_MspInit 1 */
 408:Src/stm32l4xx_hal_msp.c ****   }
 409:Src/stm32l4xx_hal_msp.c **** 
 410:Src/stm32l4xx_hal_msp.c **** }
 886              		.loc 1 410 1 view .LVU204
 887 0018 08B0     		add	sp, sp, #32
 888              	.LCFI26:
 889              		.cfi_remember_state
 890              		.cfi_def_cfa_offset 8
 891              		@ sp needed
 892 001a 10BD     		pop	{r4, pc}
 893              	.LVL38:
 894              	.L68:
 895              	.LCFI27:
 896              		.cfi_restore_state
 388:Src/stm32l4xx_hal_msp.c **** 
 897              		.loc 1 388 5 is_stmt 1 view .LVU205
 898              	.LBB13:
 388:Src/stm32l4xx_hal_msp.c **** 
 899              		.loc 1 388 5 view .LVU206
 388:Src/stm32l4xx_hal_msp.c **** 
 900              		.loc 1 388 5 view .LVU207
 901 001c 03F5E633 		add	r3, r3, #117760
 902 0020 9A6D     		ldr	r2, [r3, #88]
 903 0022 42F40032 		orr	r2, r2, #131072
 904 0026 9A65     		str	r2, [r3, #88]
 388:Src/stm32l4xx_hal_msp.c **** 
 905              		.loc 1 388 5 view .LVU208
 906 0028 9A6D     		ldr	r2, [r3, #88]
 907 002a 02F40032 		and	r2, r2, #131072
 908 002e 0192     		str	r2, [sp, #4]
 388:Src/stm32l4xx_hal_msp.c **** 
 909              		.loc 1 388 5 view .LVU209
 910 0030 019A     		ldr	r2, [sp, #4]
 911              	.LBE13:
 388:Src/stm32l4xx_hal_msp.c **** 
 912              		.loc 1 388 5 view .LVU210
 390:Src/stm32l4xx_hal_msp.c ****     /**USART2 GPIO Configuration
 913              		.loc 1 390 5 view .LVU211
 914              	.LBB14:
 390:Src/stm32l4xx_hal_msp.c ****     /**USART2 GPIO Configuration
 915              		.loc 1 390 5 view .LVU212
 390:Src/stm32l4xx_hal_msp.c ****     /**USART2 GPIO Configuration
 916              		.loc 1 390 5 view .LVU213
 917 0032 DA6C     		ldr	r2, [r3, #76]
 918 0034 42F00102 		orr	r2, r2, #1
 919 0038 DA64     		str	r2, [r3, #76]
 390:Src/stm32l4xx_hal_msp.c ****     /**USART2 GPIO Configuration
ARM GAS  /tmp/ccREYZxX.s 			page 26


 920              		.loc 1 390 5 view .LVU214
 921 003a DB6C     		ldr	r3, [r3, #76]
 922 003c 03F00103 		and	r3, r3, #1
 923 0040 0293     		str	r3, [sp, #8]
 390:Src/stm32l4xx_hal_msp.c ****     /**USART2 GPIO Configuration
 924              		.loc 1 390 5 view .LVU215
 925 0042 029B     		ldr	r3, [sp, #8]
 926              	.LBE14:
 390:Src/stm32l4xx_hal_msp.c ****     /**USART2 GPIO Configuration
 927              		.loc 1 390 5 view .LVU216
 395:Src/stm32l4xx_hal_msp.c ****     GPIO_InitStruct.Mode = GPIO_MODE_AF_PP;
 928              		.loc 1 395 5 view .LVU217
 395:Src/stm32l4xx_hal_msp.c ****     GPIO_InitStruct.Mode = GPIO_MODE_AF_PP;
 929              		.loc 1 395 25 is_stmt 0 view .LVU218
 930 0044 0C23     		movs	r3, #12
 931 0046 0393     		str	r3, [sp, #12]
 396:Src/stm32l4xx_hal_msp.c ****     GPIO_InitStruct.Pull = GPIO_NOPULL;
 932              		.loc 1 396 5 is_stmt 1 view .LVU219
 396:Src/stm32l4xx_hal_msp.c ****     GPIO_InitStruct.Pull = GPIO_NOPULL;
 933              		.loc 1 396 26 is_stmt 0 view .LVU220
 934 0048 0223     		movs	r3, #2
 935 004a 0493     		str	r3, [sp, #16]
 397:Src/stm32l4xx_hal_msp.c ****     GPIO_InitStruct.Speed = GPIO_SPEED_FREQ_VERY_HIGH;
 936              		.loc 1 397 5 is_stmt 1 view .LVU221
 397:Src/stm32l4xx_hal_msp.c ****     GPIO_InitStruct.Speed = GPIO_SPEED_FREQ_VERY_HIGH;
 937              		.loc 1 397 26 is_stmt 0 view .LVU222
 938 004c 0024     		movs	r4, #0
 939 004e 0594     		str	r4, [sp, #20]
 398:Src/stm32l4xx_hal_msp.c ****     GPIO_InitStruct.Alternate = GPIO_AF7_USART2;
 940              		.loc 1 398 5 is_stmt 1 view .LVU223
 398:Src/stm32l4xx_hal_msp.c ****     GPIO_InitStruct.Alternate = GPIO_AF7_USART2;
 941              		.loc 1 398 27 is_stmt 0 view .LVU224
 942 0050 0323     		movs	r3, #3
 943 0052 0693     		str	r3, [sp, #24]
 399:Src/stm32l4xx_hal_msp.c ****     HAL_GPIO_Init(GPIOA, &GPIO_InitStruct);
 944              		.loc 1 399 5 is_stmt 1 view .LVU225
 399:Src/stm32l4xx_hal_msp.c ****     HAL_GPIO_Init(GPIOA, &GPIO_InitStruct);
 945              		.loc 1 399 31 is_stmt 0 view .LVU226
 946 0054 0723     		movs	r3, #7
 947 0056 0793     		str	r3, [sp, #28]
 400:Src/stm32l4xx_hal_msp.c **** 
 948              		.loc 1 400 5 is_stmt 1 view .LVU227
 949 0058 03A9     		add	r1, sp, #12
 950 005a 4FF09040 		mov	r0, #1207959552
 951              	.LVL39:
 400:Src/stm32l4xx_hal_msp.c **** 
 952              		.loc 1 400 5 is_stmt 0 view .LVU228
 953 005e FFF7FEFF 		bl	HAL_GPIO_Init
 954              	.LVL40:
 403:Src/stm32l4xx_hal_msp.c ****     HAL_NVIC_EnableIRQ(USART2_IRQn);
 955              		.loc 1 403 5 is_stmt 1 view .LVU229
 956 0062 2246     		mov	r2, r4
 957 0064 2146     		mov	r1, r4
 958 0066 2620     		movs	r0, #38
 959 0068 FFF7FEFF 		bl	HAL_NVIC_SetPriority
 960              	.LVL41:
 404:Src/stm32l4xx_hal_msp.c ****   /* USER CODE BEGIN USART2_MspInit 1 */
ARM GAS  /tmp/ccREYZxX.s 			page 27


 961              		.loc 1 404 5 view .LVU230
 962 006c 2620     		movs	r0, #38
 963 006e FFF7FEFF 		bl	HAL_NVIC_EnableIRQ
 964              	.LVL42:
 965              		.loc 1 410 1 is_stmt 0 view .LVU231
 966 0072 D1E7     		b	.L65
 967              	.L70:
 968              		.align	2
 969              	.L69:
 970 0074 00440040 		.word	1073759232
 971              		.cfi_endproc
 972              	.LFE302:
 974              		.section	.text.HAL_UART_MspDeInit,"ax",%progbits
 975              		.align	1
 976              		.global	HAL_UART_MspDeInit
 977              		.syntax unified
 978              		.thumb
 979              		.thumb_func
 980              		.fpu fpv4-sp-d16
 982              	HAL_UART_MspDeInit:
 983              	.LVL43:
 984              	.LFB303:
 411:Src/stm32l4xx_hal_msp.c **** 
 412:Src/stm32l4xx_hal_msp.c **** /**
 413:Src/stm32l4xx_hal_msp.c **** * @brief UART MSP De-Initialization
 414:Src/stm32l4xx_hal_msp.c **** * This function freeze the hardware resources used in this example
 415:Src/stm32l4xx_hal_msp.c **** * @param huart: UART handle pointer
 416:Src/stm32l4xx_hal_msp.c **** * @retval None
 417:Src/stm32l4xx_hal_msp.c **** */
 418:Src/stm32l4xx_hal_msp.c **** void HAL_UART_MspDeInit(UART_HandleTypeDef* huart)
 419:Src/stm32l4xx_hal_msp.c **** {
 985              		.loc 1 419 1 is_stmt 1 view -0
 986              		.cfi_startproc
 987              		@ args = 0, pretend = 0, frame = 0
 988              		@ frame_needed = 0, uses_anonymous_args = 0
 989              		.loc 1 419 1 is_stmt 0 view .LVU233
 990 0000 08B5     		push	{r3, lr}
 991              	.LCFI28:
 992              		.cfi_def_cfa_offset 8
 993              		.cfi_offset 3, -8
 994              		.cfi_offset 14, -4
 420:Src/stm32l4xx_hal_msp.c ****   if(huart->Instance==USART2)
 995              		.loc 1 420 3 is_stmt 1 view .LVU234
 996              		.loc 1 420 11 is_stmt 0 view .LVU235
 997 0002 0268     		ldr	r2, [r0]
 998              		.loc 1 420 5 view .LVU236
 999 0004 084B     		ldr	r3, .L75
 1000 0006 9A42     		cmp	r2, r3
 1001 0008 00D0     		beq	.L74
 1002              	.LVL44:
 1003              	.L71:
 421:Src/stm32l4xx_hal_msp.c ****   {
 422:Src/stm32l4xx_hal_msp.c ****   /* USER CODE BEGIN USART2_MspDeInit 0 */
 423:Src/stm32l4xx_hal_msp.c **** 
 424:Src/stm32l4xx_hal_msp.c ****   /* USER CODE END USART2_MspDeInit 0 */
 425:Src/stm32l4xx_hal_msp.c ****     /* Peripheral clock disable */
 426:Src/stm32l4xx_hal_msp.c ****     __HAL_RCC_USART2_CLK_DISABLE();
ARM GAS  /tmp/ccREYZxX.s 			page 28


 427:Src/stm32l4xx_hal_msp.c **** 
 428:Src/stm32l4xx_hal_msp.c ****     /**USART2 GPIO Configuration
 429:Src/stm32l4xx_hal_msp.c ****     PA2     ------> USART2_TX
 430:Src/stm32l4xx_hal_msp.c ****     PA3     ------> USART2_RX
 431:Src/stm32l4xx_hal_msp.c ****     */
 432:Src/stm32l4xx_hal_msp.c ****     HAL_GPIO_DeInit(GPIOA, GPIO_PIN_2|GPIO_PIN_3);
 433:Src/stm32l4xx_hal_msp.c **** 
 434:Src/stm32l4xx_hal_msp.c ****     /* USART2 interrupt DeInit */
 435:Src/stm32l4xx_hal_msp.c ****     HAL_NVIC_DisableIRQ(USART2_IRQn);
 436:Src/stm32l4xx_hal_msp.c ****   /* USER CODE BEGIN USART2_MspDeInit 1 */
 437:Src/stm32l4xx_hal_msp.c **** 
 438:Src/stm32l4xx_hal_msp.c ****   /* USER CODE END USART2_MspDeInit 1 */
 439:Src/stm32l4xx_hal_msp.c ****   }
 440:Src/stm32l4xx_hal_msp.c **** 
 441:Src/stm32l4xx_hal_msp.c **** }
 1004              		.loc 1 441 1 view .LVU237
 1005 000a 08BD     		pop	{r3, pc}
 1006              	.LVL45:
 1007              	.L74:
 426:Src/stm32l4xx_hal_msp.c **** 
 1008              		.loc 1 426 5 is_stmt 1 view .LVU238
 1009 000c 074A     		ldr	r2, .L75+4
 1010 000e 936D     		ldr	r3, [r2, #88]
 1011 0010 23F40033 		bic	r3, r3, #131072
 1012 0014 9365     		str	r3, [r2, #88]
 432:Src/stm32l4xx_hal_msp.c **** 
 1013              		.loc 1 432 5 view .LVU239
 1014 0016 0C21     		movs	r1, #12
 1015 0018 4FF09040 		mov	r0, #1207959552
 1016              	.LVL46:
 432:Src/stm32l4xx_hal_msp.c **** 
 1017              		.loc 1 432 5 is_stmt 0 view .LVU240
 1018 001c FFF7FEFF 		bl	HAL_GPIO_DeInit
 1019              	.LVL47:
 435:Src/stm32l4xx_hal_msp.c ****   /* USER CODE BEGIN USART2_MspDeInit 1 */
 1020              		.loc 1 435 5 is_stmt 1 view .LVU241
 1021 0020 2620     		movs	r0, #38
 1022 0022 FFF7FEFF 		bl	HAL_NVIC_DisableIRQ
 1023              	.LVL48:
 1024              		.loc 1 441 1 is_stmt 0 view .LVU242
 1025 0026 F0E7     		b	.L71
 1026              	.L76:
 1027              		.align	2
 1028              	.L75:
 1029 0028 00440040 		.word	1073759232
 1030 002c 00100240 		.word	1073876992
 1031              		.cfi_endproc
 1032              	.LFE303:
 1034              		.text
 1035              	.Letext0:
 1036              		.file 2 "/opt/gcc-arm-none-eabi-9-2020-q2/arm-none-eabi/include/machine/_default_types.h"
 1037              		.file 3 "/opt/gcc-arm-none-eabi-9-2020-q2/arm-none-eabi/include/sys/_stdint.h"
 1038              		.file 4 "Drivers/CMSIS/Include/core_cm4.h"
 1039              		.file 5 "Drivers/CMSIS/Device/ST/STM32L4xx/Include/system_stm32l4xx.h"
 1040              		.file 6 "Drivers/CMSIS/Device/ST/STM32L4xx/Include/stm32l452xx.h"
 1041              		.file 7 "Drivers/CMSIS/Device/ST/STM32L4xx/Include/stm32l4xx.h"
 1042              		.file 8 "Drivers/STM32L4xx_HAL_Driver/Inc/stm32l4xx_hal_def.h"
ARM GAS  /tmp/ccREYZxX.s 			page 29


 1043              		.file 9 "Drivers/STM32L4xx_HAL_Driver/Inc/stm32l4xx_hal_gpio.h"
 1044              		.file 10 "Drivers/STM32L4xx_HAL_Driver/Inc/stm32l4xx_hal_dma.h"
 1045              		.file 11 "Drivers/STM32L4xx_HAL_Driver/Inc/stm32l4xx_hal_adc.h"
 1046              		.file 12 "Drivers/STM32L4xx_HAL_Driver/Inc/stm32l4xx_hal_flash.h"
 1047              		.file 13 "Drivers/STM32L4xx_HAL_Driver/Inc/stm32l4xx_hal_i2c.h"
 1048              		.file 14 "Drivers/STM32L4xx_HAL_Driver/Inc/stm32l4xx_hal_spi.h"
 1049              		.file 15 "Drivers/STM32L4xx_HAL_Driver/Inc/stm32l4xx_hal_tim.h"
 1050              		.file 16 "Drivers/STM32L4xx_HAL_Driver/Inc/stm32l4xx_hal_uart.h"
 1051              		.file 17 "Drivers/STM32L4xx_HAL_Driver/Inc/stm32l4xx_hal.h"
 1052              		.file 18 "Drivers/STM32L4xx_HAL_Driver/Inc/stm32l4xx_hal_cortex.h"
ARM GAS  /tmp/ccREYZxX.s 			page 30

