ARM GAS  /tmp/ccQ3xVGk.s 			page 1


   1              		.cpu cortex-m4
   2              		.eabi_attribute 27, 1
   3              		.eabi_attribute 28, 1
   4              		.eabi_attribute 20, 1
   5              		.eabi_attribute 21, 1
   6              		.eabi_attribute 23, 3
   7              		.eabi_attribute 24, 1
   8              		.eabi_attribute 25, 1
   9              		.eabi_attribute 26, 1
  10              		.eabi_attribute 30, 1
  11              		.eabi_attribute 34, 1
  12              		.eabi_attribute 18, 4
  13              		.file	"tasker.cpp"
  14              		.text
  15              	.Ltext0:
  16              		.cfi_sections	.debug_frame
  17              		.section	.text._ZN17IRQ_observer_base8RegisterEv,"axG",%progbits,_ZN17IRQ_observer_base8RegisterEv
  18              		.align	1
  19              		.weak	_ZN17IRQ_observer_base8RegisterEv
  20              		.arch armv7e-m
  21              		.syntax unified
  22              		.thumb
  23              		.thumb_func
  24              		.fpu fpv4-sp-d16
  26              	_ZN17IRQ_observer_base8RegisterEv:
  27              	.LVL0:
  28              	.LFB3371:
  29              		.file 1 "alohal/irq/irq_observer.hpp"
   1:alohal/irq/irq_observer.hpp **** #ifndef IRQ_OBSERVER_HPP
   2:alohal/irq/irq_observer.hpp **** #define IRQ_OBSERVER_HPP
   3:alohal/irq/irq_observer.hpp **** 
   4:alohal/irq/irq_observer.hpp **** // ------------------LIBRARY_INCLUDES--------------
   5:alohal/irq/irq_observer.hpp **** 
   6:alohal/irq/irq_observer.hpp **** #ifdef STM32_F0
   7:alohal/irq/irq_observer.hpp **** # include "stm32f0xx_hal.h"
   8:alohal/irq/irq_observer.hpp **** #elif STM32_F1
   9:alohal/irq/irq_observer.hpp **** # include "stm32f1xx_hal.h"
  10:alohal/irq/irq_observer.hpp **** #elif STM32_F3
  11:alohal/irq/irq_observer.hpp **** # include "stm32f3xx_hal.h"
  12:alohal/irq/irq_observer.hpp **** #elif STM32_F4
  13:alohal/irq/irq_observer.hpp **** # include "stm32f4xx_hal.h"
  14:alohal/irq/irq_observer.hpp **** #elif STM32_F7
  15:alohal/irq/irq_observer.hpp **** # include "stm32f7xx_hal.h"
  16:alohal/irq/irq_observer.hpp **** #endif
  17:alohal/irq/irq_observer.hpp **** 
  18:alohal/irq/irq_observer.hpp **** using namespace std;
  19:alohal/irq/irq_observer.hpp **** 
  20:alohal/irq/irq_observer.hpp **** class IRQ_observer_base {
  21:alohal/irq/irq_observer.hpp **** public:
  22:alohal/irq/irq_observer.hpp ****     IRQ_observer_base() = default;
  23:alohal/irq/irq_observer.hpp ****     virtual ~IRQ_observer_base() = default;
  24:alohal/irq/irq_observer.hpp ****     virtual void Register(){ }
  30              		.loc 1 24 18 view -0
  31              		.cfi_startproc
  32              		@ args = 0, pretend = 0, frame = 0
  33              		@ frame_needed = 0, uses_anonymous_args = 0
  34              		@ link register save eliminated.
ARM GAS  /tmp/ccQ3xVGk.s 			page 2


  35              		.loc 1 24 30 is_stmt 0 view .LVU1
  36 0000 7047     		bx	lr
  37              		.cfi_endproc
  38              	.LFE3371:
  40              		.section	.text._ZN12IRQ_observerI6TaskerED2Ev,"axG",%progbits,_ZN12IRQ_observerI6TaskerED5Ev,comda
  41              		.align	1
  42              		.weak	_ZN12IRQ_observerI6TaskerED2Ev
  43              		.syntax unified
  44              		.thumb
  45              		.thumb_func
  46              		.fpu fpv4-sp-d16
  48              	_ZN12IRQ_observerI6TaskerED2Ev:
  49              	.LVL1:
  50              	.LFB4756:
  25:alohal/irq/irq_observer.hpp **** 
  26:alohal/irq/irq_observer.hpp ****     virtual void Run(){ }
  27:alohal/irq/irq_observer.hpp **** 
  28:alohal/irq/irq_observer.hpp ****     virtual void * Get_origin_object() = 0;
  29:alohal/irq/irq_observer.hpp **** };
  30:alohal/irq/irq_observer.hpp **** 
  31:alohal/irq/irq_observer.hpp **** template <typename observer_class>
  32:alohal/irq/irq_observer.hpp **** class IRQ_observer : public IRQ_observer_base {
  51              		.loc 1 32 7 is_stmt 1 view -0
  52              		.cfi_startproc
  53              		@ args = 0, pretend = 0, frame = 0
  54              		@ frame_needed = 0, uses_anonymous_args = 0
  55              		@ link register save eliminated.
  56              	.LBB839:
  57              	.LBI839:
  23:alohal/irq/irq_observer.hpp ****     virtual void Register(){ }
  58              		.loc 1 23 13 view .LVU3
  23:alohal/irq/irq_observer.hpp ****     virtual void Register(){ }
  59              		.loc 1 23 13 is_stmt 0 view .LVU4
  60              	.LBE839:
  61              		.loc 1 32 7 view .LVU5
  62 0000 7047     		bx	lr
  63              		.cfi_endproc
  64              	.LFE4756:
  66              		.weak	_ZN12IRQ_observerI6TaskerED1Ev
  67              		.thumb_set _ZN12IRQ_observerI6TaskerED1Ev,_ZN12IRQ_observerI6TaskerED2Ev
  68              		.section	.text._ZN12IRQ_observerI6TaskerE3RunEv,"axG",%progbits,_ZN12IRQ_observerI6TaskerE3RunEv,c
  69              		.align	1
  70              		.weak	_ZN12IRQ_observerI6TaskerE3RunEv
  71              		.syntax unified
  72              		.thumb
  73              		.thumb_func
  74              		.fpu fpv4-sp-d16
  76              	_ZN12IRQ_observerI6TaskerE3RunEv:
  77              	.LVL2:
  78              	.LFB4763:
  33:alohal/irq/irq_observer.hpp ****     void *pointer_to_origin;
  34:alohal/irq/irq_observer.hpp **** 
  35:alohal/irq/irq_observer.hpp ****     observer_class * object_ptr = nullptr;
  36:alohal/irq/irq_observer.hpp ****     void (observer_class::*method_pointer)();
  37:alohal/irq/irq_observer.hpp **** 
  38:alohal/irq/irq_observer.hpp ****     void (*function)(void) = nullptr;
  39:alohal/irq/irq_observer.hpp **** 
ARM GAS  /tmp/ccQ3xVGk.s 			page 3


  40:alohal/irq/irq_observer.hpp **** public:
  41:alohal/irq/irq_observer.hpp ****     IRQ_observer() = default;
  42:alohal/irq/irq_observer.hpp **** 
  43:alohal/irq/irq_observer.hpp ****     void Register(observer_class& object_set, void (observer_class::*method_pointer_set)()){
  44:alohal/irq/irq_observer.hpp ****         pointer_to_origin = &object_set;
  45:alohal/irq/irq_observer.hpp ****         object_ptr         = &object_set;
  46:alohal/irq/irq_observer.hpp ****         method_pointer = method_pointer_set;
  47:alohal/irq/irq_observer.hpp ****     }
  48:alohal/irq/irq_observer.hpp **** 
  49:alohal/irq/irq_observer.hpp ****     void Register(observer_class* object_set, void (observer_class::*method_pointer_set)()){
  50:alohal/irq/irq_observer.hpp ****         pointer_to_origin = &object_set;
  51:alohal/irq/irq_observer.hpp ****         object_ptr        = object_set;
  52:alohal/irq/irq_observer.hpp ****         method_pointer = method_pointer_set;
  53:alohal/irq/irq_observer.hpp ****     }
  54:alohal/irq/irq_observer.hpp **** 
  55:alohal/irq/irq_observer.hpp ****     void Register(void (*function_pointer_set)(void)){
  56:alohal/irq/irq_observer.hpp ****         function = function_pointer_set;
  57:alohal/irq/irq_observer.hpp ****     }
  58:alohal/irq/irq_observer.hpp **** 
  59:alohal/irq/irq_observer.hpp ****     void Run() override {
  79              		.loc 1 59 10 is_stmt 1 view -0
  80              		.cfi_startproc
  81              		@ args = 0, pretend = 0, frame = 0
  82              		@ frame_needed = 0, uses_anonymous_args = 0
  83              		.loc 1 59 10 is_stmt 0 view .LVU7
  84 0000 10B5     		push	{r4, lr}
  85              	.LCFI0:
  86              		.cfi_def_cfa_offset 8
  87              		.cfi_offset 4, -8
  88              		.cfi_offset 14, -4
  60:alohal/irq/irq_observer.hpp ****         if (function) {
  89              		.loc 1 60 13 view .LVU8
  90 0002 4369     		ldr	r3, [r0, #20]
  91              		.loc 1 60 9 view .LVU9
  92 0004 0BB1     		cbz	r3, .L4
  61:alohal/irq/irq_observer.hpp ****             (*(function))();
  93              		.loc 1 61 26 view .LVU10
  94 0006 9847     		blx	r3
  95              	.LVL3:
  96              	.L3:
  62:alohal/irq/irq_observer.hpp ****         } else if (object_ptr){
  63:alohal/irq/irq_observer.hpp ****             (*object_ptr.*method_pointer)();
  64:alohal/irq/irq_observer.hpp ****         }
  65:alohal/irq/irq_observer.hpp ****     }
  97              		.loc 1 65 5 view .LVU11
  98 0008 10BD     		pop	{r4, pc}
  99              	.LVL4:
 100              	.L4:
  62:alohal/irq/irq_observer.hpp ****         } else if (object_ptr){
 101              		.loc 1 62 20 view .LVU12
 102 000a 8368     		ldr	r3, [r0, #8]
  62:alohal/irq/irq_observer.hpp ****         } else if (object_ptr){
 103              		.loc 1 62 16 view .LVU13
 104 000c 002B     		cmp	r3, #0
 105 000e FBD0     		beq	.L3
  63:alohal/irq/irq_observer.hpp ****         }
 106              		.loc 1 63 42 view .LVU14
ARM GAS  /tmp/ccQ3xVGk.s 			page 4


 107 0010 0269     		ldr	r2, [r0, #16]
 108 0012 12F0010F 		tst	r2, #1
 109 0016 04D1     		bne	.L6
  63:alohal/irq/irq_observer.hpp ****         }
 110              		.loc 1 63 42 discriminator 1 view .LVU15
 111 0018 C168     		ldr	r1, [r0, #12]
 112              	.L7:
  63:alohal/irq/irq_observer.hpp ****         }
 113              		.loc 1 63 42 discriminator 4 view .LVU16
 114 001a 03EB6200 		add	r0, r3, r2, asr #1
 115              	.LVL5:
  63:alohal/irq/irq_observer.hpp ****         }
 116              		.loc 1 63 42 discriminator 4 view .LVU17
 117 001e 8847     		blx	r1
 118              	.LVL6:
 119              		.loc 1 65 5 discriminator 4 view .LVU18
 120 0020 F2E7     		b	.L3
 121              	.LVL7:
 122              	.L6:
  63:alohal/irq/irq_observer.hpp ****         }
 123              		.loc 1 63 42 discriminator 2 view .LVU19
 124 0022 5110     		asrs	r1, r2, #1
 125 0024 5C58     		ldr	r4, [r3, r1]
 126 0026 C168     		ldr	r1, [r0, #12]
 127 0028 6158     		ldr	r1, [r4, r1]
 128 002a F6E7     		b	.L7
 129              		.cfi_endproc
 130              	.LFE4763:
 132              		.section	.text._ZN12IRQ_observerI6TaskerE17Get_origin_objectEv,"axG",%progbits,_ZN12IRQ_observerI6
 133              		.align	1
 134              		.weak	_ZN12IRQ_observerI6TaskerE17Get_origin_objectEv
 135              		.syntax unified
 136              		.thumb
 137              		.thumb_func
 138              		.fpu fpv4-sp-d16
 140              	_ZN12IRQ_observerI6TaskerE17Get_origin_objectEv:
 141              	.LVL8:
 142              	.LFB4764:
  66:alohal/irq/irq_observer.hpp **** 
  67:alohal/irq/irq_observer.hpp ****     void * Get_origin_object() override {
 143              		.loc 1 67 12 is_stmt 1 view -0
 144              		.cfi_startproc
 145              		@ args = 0, pretend = 0, frame = 0
 146              		@ frame_needed = 0, uses_anonymous_args = 0
 147              		@ link register save eliminated.
  68:alohal/irq/irq_observer.hpp ****         return pointer_to_origin;
  69:alohal/irq/irq_observer.hpp ****     }
 148              		.loc 1 69 5 is_stmt 0 view .LVU21
 149 0000 4068     		ldr	r0, [r0, #4]
 150              	.LVL9:
 151              		.loc 1 69 5 view .LVU22
 152 0002 7047     		bx	lr
 153              		.cfi_endproc
 154              	.LFE4764:
 156              		.section	.text._ZN12IRQ_observerI6TaskerED0Ev,"axG",%progbits,_ZN12IRQ_observerI6TaskerED5Ev,comda
 157              		.align	1
 158              		.weak	_ZN12IRQ_observerI6TaskerED0Ev
ARM GAS  /tmp/ccQ3xVGk.s 			page 5


 159              		.syntax unified
 160              		.thumb
 161              		.thumb_func
 162              		.fpu fpv4-sp-d16
 164              	_ZN12IRQ_observerI6TaskerED0Ev:
 165              	.LVL10:
 166              	.LFB4758:
  32:alohal/irq/irq_observer.hpp ****     void *pointer_to_origin;
 167              		.loc 1 32 7 is_stmt 1 view -0
 168              		.cfi_startproc
 169              		@ args = 0, pretend = 0, frame = 0
 170              		@ frame_needed = 0, uses_anonymous_args = 0
  32:alohal/irq/irq_observer.hpp ****     void *pointer_to_origin;
 171              		.loc 1 32 7 is_stmt 0 view .LVU24
 172 0000 10B5     		push	{r4, lr}
 173              	.LCFI1:
 174              		.cfi_def_cfa_offset 8
 175              		.cfi_offset 4, -8
 176              		.cfi_offset 14, -4
 177 0002 0446     		mov	r4, r0
 178              	.LVL11:
 179              	.LBB840:
 180              	.LBI840:
  32:alohal/irq/irq_observer.hpp ****     void *pointer_to_origin;
 181              		.loc 1 32 7 is_stmt 1 view .LVU25
 182              	.LBB841:
 183              	.LBI841:
  23:alohal/irq/irq_observer.hpp ****     virtual void Register(){ }
 184              		.loc 1 23 13 view .LVU26
  23:alohal/irq/irq_observer.hpp ****     virtual void Register(){ }
 185              		.loc 1 23 13 is_stmt 0 view .LVU27
 186              	.LBE841:
 187              	.LBE840:
  32:alohal/irq/irq_observer.hpp ****     void *pointer_to_origin;
 188              		.loc 1 32 7 view .LVU28
 189 0004 1821     		movs	r1, #24
 190 0006 FFF7FEFF 		bl	_ZdlPvj
 191              	.LVL12:
  32:alohal/irq/irq_observer.hpp ****     void *pointer_to_origin;
 192              		.loc 1 32 7 view .LVU29
 193 000a 2046     		mov	r0, r4
 194 000c 10BD     		pop	{r4, pc}
  32:alohal/irq/irq_observer.hpp ****     void *pointer_to_origin;
 195              		.loc 1 32 7 view .LVU30
 196              		.cfi_endproc
 197              	.LFE4758:
 199              		.section	.text._ZNSt7__cxx114listIP12Tasker_eventSaIS2_EE5mergeIZN6Tasker5_SortEvEUlS2_S2_E_EEvOS4
 200              		.align	1
 201              		.syntax unified
 202              		.thumb
 203              		.thumb_func
 204              		.fpu fpv4-sp-d16
 206              	_ZNSt7__cxx114listIP12Tasker_eventSaIS2_EE5mergeIZN6Tasker5_SortEvEUlS2_S2_E_EEvOS4_T_:
 207              	.LVL13:
 208              	.LFB4464:
 209              		.file 2 "/opt/gcc-arm-none-eabi-9-2020-q2/arm-none-eabi/include/c++/9.3.1/bits/list.tcc"
   1:/opt/gcc-arm-none-eabi-9-2020-q2/arm-none-eabi/include/c++/9.3.1/bits/list.tcc **** // List implementation (out of line) -*- C++ -*-
ARM GAS  /tmp/ccQ3xVGk.s 			page 6


   2:/opt/gcc-arm-none-eabi-9-2020-q2/arm-none-eabi/include/c++/9.3.1/bits/list.tcc **** 
   3:/opt/gcc-arm-none-eabi-9-2020-q2/arm-none-eabi/include/c++/9.3.1/bits/list.tcc **** // Copyright (C) 2001-2019 Free Software Foundation, Inc.
   4:/opt/gcc-arm-none-eabi-9-2020-q2/arm-none-eabi/include/c++/9.3.1/bits/list.tcc **** //
   5:/opt/gcc-arm-none-eabi-9-2020-q2/arm-none-eabi/include/c++/9.3.1/bits/list.tcc **** // This file is part of the GNU ISO C++ Library.  This library is free
   6:/opt/gcc-arm-none-eabi-9-2020-q2/arm-none-eabi/include/c++/9.3.1/bits/list.tcc **** // software; you can redistribute it and/or modify it under the
   7:/opt/gcc-arm-none-eabi-9-2020-q2/arm-none-eabi/include/c++/9.3.1/bits/list.tcc **** // terms of the GNU General Public License as published by the
   8:/opt/gcc-arm-none-eabi-9-2020-q2/arm-none-eabi/include/c++/9.3.1/bits/list.tcc **** // Free Software Foundation; either version 3, or (at your option)
   9:/opt/gcc-arm-none-eabi-9-2020-q2/arm-none-eabi/include/c++/9.3.1/bits/list.tcc **** // any later version.
  10:/opt/gcc-arm-none-eabi-9-2020-q2/arm-none-eabi/include/c++/9.3.1/bits/list.tcc **** 
  11:/opt/gcc-arm-none-eabi-9-2020-q2/arm-none-eabi/include/c++/9.3.1/bits/list.tcc **** // This library is distributed in the hope that it will be useful,
  12:/opt/gcc-arm-none-eabi-9-2020-q2/arm-none-eabi/include/c++/9.3.1/bits/list.tcc **** // but WITHOUT ANY WARRANTY; without even the implied warranty of
  13:/opt/gcc-arm-none-eabi-9-2020-q2/arm-none-eabi/include/c++/9.3.1/bits/list.tcc **** // MERCHANTABILITY or FITNESS FOR A PARTICULAR PURPOSE.  See the
  14:/opt/gcc-arm-none-eabi-9-2020-q2/arm-none-eabi/include/c++/9.3.1/bits/list.tcc **** // GNU General Public License for more details.
  15:/opt/gcc-arm-none-eabi-9-2020-q2/arm-none-eabi/include/c++/9.3.1/bits/list.tcc **** 
  16:/opt/gcc-arm-none-eabi-9-2020-q2/arm-none-eabi/include/c++/9.3.1/bits/list.tcc **** // Under Section 7 of GPL version 3, you are granted additional
  17:/opt/gcc-arm-none-eabi-9-2020-q2/arm-none-eabi/include/c++/9.3.1/bits/list.tcc **** // permissions described in the GCC Runtime Library Exception, version
  18:/opt/gcc-arm-none-eabi-9-2020-q2/arm-none-eabi/include/c++/9.3.1/bits/list.tcc **** // 3.1, as published by the Free Software Foundation.
  19:/opt/gcc-arm-none-eabi-9-2020-q2/arm-none-eabi/include/c++/9.3.1/bits/list.tcc **** 
  20:/opt/gcc-arm-none-eabi-9-2020-q2/arm-none-eabi/include/c++/9.3.1/bits/list.tcc **** // You should have received a copy of the GNU General Public License and
  21:/opt/gcc-arm-none-eabi-9-2020-q2/arm-none-eabi/include/c++/9.3.1/bits/list.tcc **** // a copy of the GCC Runtime Library Exception along with this program;
  22:/opt/gcc-arm-none-eabi-9-2020-q2/arm-none-eabi/include/c++/9.3.1/bits/list.tcc **** // see the files COPYING3 and COPYING.RUNTIME respectively.  If not, see
  23:/opt/gcc-arm-none-eabi-9-2020-q2/arm-none-eabi/include/c++/9.3.1/bits/list.tcc **** // <http://www.gnu.org/licenses/>.
  24:/opt/gcc-arm-none-eabi-9-2020-q2/arm-none-eabi/include/c++/9.3.1/bits/list.tcc **** 
  25:/opt/gcc-arm-none-eabi-9-2020-q2/arm-none-eabi/include/c++/9.3.1/bits/list.tcc **** /*
  26:/opt/gcc-arm-none-eabi-9-2020-q2/arm-none-eabi/include/c++/9.3.1/bits/list.tcc ****  *
  27:/opt/gcc-arm-none-eabi-9-2020-q2/arm-none-eabi/include/c++/9.3.1/bits/list.tcc ****  * Copyright (c) 1994
  28:/opt/gcc-arm-none-eabi-9-2020-q2/arm-none-eabi/include/c++/9.3.1/bits/list.tcc ****  * Hewlett-Packard Company
  29:/opt/gcc-arm-none-eabi-9-2020-q2/arm-none-eabi/include/c++/9.3.1/bits/list.tcc ****  *
  30:/opt/gcc-arm-none-eabi-9-2020-q2/arm-none-eabi/include/c++/9.3.1/bits/list.tcc ****  * Permission to use, copy, modify, distribute and sell this software
  31:/opt/gcc-arm-none-eabi-9-2020-q2/arm-none-eabi/include/c++/9.3.1/bits/list.tcc ****  * and its documentation for any purpose is hereby granted without fee,
  32:/opt/gcc-arm-none-eabi-9-2020-q2/arm-none-eabi/include/c++/9.3.1/bits/list.tcc ****  * provided that the above copyright notice appear in all copies and
  33:/opt/gcc-arm-none-eabi-9-2020-q2/arm-none-eabi/include/c++/9.3.1/bits/list.tcc ****  * that both that copyright notice and this permission notice appear
  34:/opt/gcc-arm-none-eabi-9-2020-q2/arm-none-eabi/include/c++/9.3.1/bits/list.tcc ****  * in supporting documentation.  Hewlett-Packard Company makes no
  35:/opt/gcc-arm-none-eabi-9-2020-q2/arm-none-eabi/include/c++/9.3.1/bits/list.tcc ****  * representations about the suitability of this software for any
  36:/opt/gcc-arm-none-eabi-9-2020-q2/arm-none-eabi/include/c++/9.3.1/bits/list.tcc ****  * purpose.  It is provided "as is" without express or implied warranty.
  37:/opt/gcc-arm-none-eabi-9-2020-q2/arm-none-eabi/include/c++/9.3.1/bits/list.tcc ****  *
  38:/opt/gcc-arm-none-eabi-9-2020-q2/arm-none-eabi/include/c++/9.3.1/bits/list.tcc ****  *
  39:/opt/gcc-arm-none-eabi-9-2020-q2/arm-none-eabi/include/c++/9.3.1/bits/list.tcc ****  * Copyright (c) 1996,1997
  40:/opt/gcc-arm-none-eabi-9-2020-q2/arm-none-eabi/include/c++/9.3.1/bits/list.tcc ****  * Silicon Graphics Computer Systems, Inc.
  41:/opt/gcc-arm-none-eabi-9-2020-q2/arm-none-eabi/include/c++/9.3.1/bits/list.tcc ****  *
  42:/opt/gcc-arm-none-eabi-9-2020-q2/arm-none-eabi/include/c++/9.3.1/bits/list.tcc ****  * Permission to use, copy, modify, distribute and sell this software
  43:/opt/gcc-arm-none-eabi-9-2020-q2/arm-none-eabi/include/c++/9.3.1/bits/list.tcc ****  * and its documentation for any purpose is hereby granted without fee,
  44:/opt/gcc-arm-none-eabi-9-2020-q2/arm-none-eabi/include/c++/9.3.1/bits/list.tcc ****  * provided that the above copyright notice appear in all copies and
  45:/opt/gcc-arm-none-eabi-9-2020-q2/arm-none-eabi/include/c++/9.3.1/bits/list.tcc ****  * that both that copyright notice and this permission notice appear
  46:/opt/gcc-arm-none-eabi-9-2020-q2/arm-none-eabi/include/c++/9.3.1/bits/list.tcc ****  * in supporting documentation.  Silicon Graphics makes no
  47:/opt/gcc-arm-none-eabi-9-2020-q2/arm-none-eabi/include/c++/9.3.1/bits/list.tcc ****  * representations about the suitability of this software for any
  48:/opt/gcc-arm-none-eabi-9-2020-q2/arm-none-eabi/include/c++/9.3.1/bits/list.tcc ****  * purpose.  It is provided "as is" without express or implied warranty.
  49:/opt/gcc-arm-none-eabi-9-2020-q2/arm-none-eabi/include/c++/9.3.1/bits/list.tcc ****  */
  50:/opt/gcc-arm-none-eabi-9-2020-q2/arm-none-eabi/include/c++/9.3.1/bits/list.tcc **** 
  51:/opt/gcc-arm-none-eabi-9-2020-q2/arm-none-eabi/include/c++/9.3.1/bits/list.tcc **** /** @file bits/list.tcc
  52:/opt/gcc-arm-none-eabi-9-2020-q2/arm-none-eabi/include/c++/9.3.1/bits/list.tcc ****  *  This is an internal header file, included by other library headers.
  53:/opt/gcc-arm-none-eabi-9-2020-q2/arm-none-eabi/include/c++/9.3.1/bits/list.tcc ****  *  Do not attempt to use it directly. @headername{list}
  54:/opt/gcc-arm-none-eabi-9-2020-q2/arm-none-eabi/include/c++/9.3.1/bits/list.tcc ****  */
  55:/opt/gcc-arm-none-eabi-9-2020-q2/arm-none-eabi/include/c++/9.3.1/bits/list.tcc **** 
  56:/opt/gcc-arm-none-eabi-9-2020-q2/arm-none-eabi/include/c++/9.3.1/bits/list.tcc **** #ifndef _LIST_TCC
  57:/opt/gcc-arm-none-eabi-9-2020-q2/arm-none-eabi/include/c++/9.3.1/bits/list.tcc **** #define _LIST_TCC 1
  58:/opt/gcc-arm-none-eabi-9-2020-q2/arm-none-eabi/include/c++/9.3.1/bits/list.tcc **** 
ARM GAS  /tmp/ccQ3xVGk.s 			page 7


  59:/opt/gcc-arm-none-eabi-9-2020-q2/arm-none-eabi/include/c++/9.3.1/bits/list.tcc **** namespace std _GLIBCXX_VISIBILITY(default)
  60:/opt/gcc-arm-none-eabi-9-2020-q2/arm-none-eabi/include/c++/9.3.1/bits/list.tcc **** {
  61:/opt/gcc-arm-none-eabi-9-2020-q2/arm-none-eabi/include/c++/9.3.1/bits/list.tcc **** _GLIBCXX_BEGIN_NAMESPACE_VERSION
  62:/opt/gcc-arm-none-eabi-9-2020-q2/arm-none-eabi/include/c++/9.3.1/bits/list.tcc **** _GLIBCXX_BEGIN_NAMESPACE_CONTAINER
  63:/opt/gcc-arm-none-eabi-9-2020-q2/arm-none-eabi/include/c++/9.3.1/bits/list.tcc **** 
  64:/opt/gcc-arm-none-eabi-9-2020-q2/arm-none-eabi/include/c++/9.3.1/bits/list.tcc ****   template<typename _Tp, typename _Alloc>
  65:/opt/gcc-arm-none-eabi-9-2020-q2/arm-none-eabi/include/c++/9.3.1/bits/list.tcc ****     void
  66:/opt/gcc-arm-none-eabi-9-2020-q2/arm-none-eabi/include/c++/9.3.1/bits/list.tcc ****     _List_base<_Tp, _Alloc>::
  67:/opt/gcc-arm-none-eabi-9-2020-q2/arm-none-eabi/include/c++/9.3.1/bits/list.tcc ****     _M_clear() _GLIBCXX_NOEXCEPT
  68:/opt/gcc-arm-none-eabi-9-2020-q2/arm-none-eabi/include/c++/9.3.1/bits/list.tcc ****     {
  69:/opt/gcc-arm-none-eabi-9-2020-q2/arm-none-eabi/include/c++/9.3.1/bits/list.tcc ****       typedef _List_node<_Tp>  _Node;
  70:/opt/gcc-arm-none-eabi-9-2020-q2/arm-none-eabi/include/c++/9.3.1/bits/list.tcc ****       __detail::_List_node_base* __cur = _M_impl._M_node._M_next;
  71:/opt/gcc-arm-none-eabi-9-2020-q2/arm-none-eabi/include/c++/9.3.1/bits/list.tcc ****       while (__cur != &_M_impl._M_node)
  72:/opt/gcc-arm-none-eabi-9-2020-q2/arm-none-eabi/include/c++/9.3.1/bits/list.tcc **** 	{
  73:/opt/gcc-arm-none-eabi-9-2020-q2/arm-none-eabi/include/c++/9.3.1/bits/list.tcc **** 	  _Node* __tmp = static_cast<_Node*>(__cur);
  74:/opt/gcc-arm-none-eabi-9-2020-q2/arm-none-eabi/include/c++/9.3.1/bits/list.tcc **** 	  __cur = __tmp->_M_next;
  75:/opt/gcc-arm-none-eabi-9-2020-q2/arm-none-eabi/include/c++/9.3.1/bits/list.tcc **** 	  _Tp* __val = __tmp->_M_valptr();
  76:/opt/gcc-arm-none-eabi-9-2020-q2/arm-none-eabi/include/c++/9.3.1/bits/list.tcc **** #if __cplusplus >= 201103L
  77:/opt/gcc-arm-none-eabi-9-2020-q2/arm-none-eabi/include/c++/9.3.1/bits/list.tcc **** 	  _Node_alloc_traits::destroy(_M_get_Node_allocator(), __val);
  78:/opt/gcc-arm-none-eabi-9-2020-q2/arm-none-eabi/include/c++/9.3.1/bits/list.tcc **** #else
  79:/opt/gcc-arm-none-eabi-9-2020-q2/arm-none-eabi/include/c++/9.3.1/bits/list.tcc **** 	  _Tp_alloc_type(_M_get_Node_allocator()).destroy(__val);
  80:/opt/gcc-arm-none-eabi-9-2020-q2/arm-none-eabi/include/c++/9.3.1/bits/list.tcc **** #endif
  81:/opt/gcc-arm-none-eabi-9-2020-q2/arm-none-eabi/include/c++/9.3.1/bits/list.tcc **** 	  _M_put_node(__tmp);
  82:/opt/gcc-arm-none-eabi-9-2020-q2/arm-none-eabi/include/c++/9.3.1/bits/list.tcc **** 	}
  83:/opt/gcc-arm-none-eabi-9-2020-q2/arm-none-eabi/include/c++/9.3.1/bits/list.tcc ****     }
  84:/opt/gcc-arm-none-eabi-9-2020-q2/arm-none-eabi/include/c++/9.3.1/bits/list.tcc **** 
  85:/opt/gcc-arm-none-eabi-9-2020-q2/arm-none-eabi/include/c++/9.3.1/bits/list.tcc **** #if __cplusplus >= 201103L
  86:/opt/gcc-arm-none-eabi-9-2020-q2/arm-none-eabi/include/c++/9.3.1/bits/list.tcc ****   template<typename _Tp, typename _Alloc>
  87:/opt/gcc-arm-none-eabi-9-2020-q2/arm-none-eabi/include/c++/9.3.1/bits/list.tcc ****     template<typename... _Args>
  88:/opt/gcc-arm-none-eabi-9-2020-q2/arm-none-eabi/include/c++/9.3.1/bits/list.tcc ****       typename list<_Tp, _Alloc>::iterator
  89:/opt/gcc-arm-none-eabi-9-2020-q2/arm-none-eabi/include/c++/9.3.1/bits/list.tcc ****       list<_Tp, _Alloc>::
  90:/opt/gcc-arm-none-eabi-9-2020-q2/arm-none-eabi/include/c++/9.3.1/bits/list.tcc ****       emplace(const_iterator __position, _Args&&... __args)
  91:/opt/gcc-arm-none-eabi-9-2020-q2/arm-none-eabi/include/c++/9.3.1/bits/list.tcc ****       {
  92:/opt/gcc-arm-none-eabi-9-2020-q2/arm-none-eabi/include/c++/9.3.1/bits/list.tcc **** 	_Node* __tmp = _M_create_node(std::forward<_Args>(__args)...);
  93:/opt/gcc-arm-none-eabi-9-2020-q2/arm-none-eabi/include/c++/9.3.1/bits/list.tcc **** 	__tmp->_M_hook(__position._M_const_cast()._M_node);
  94:/opt/gcc-arm-none-eabi-9-2020-q2/arm-none-eabi/include/c++/9.3.1/bits/list.tcc **** 	this->_M_inc_size(1);
  95:/opt/gcc-arm-none-eabi-9-2020-q2/arm-none-eabi/include/c++/9.3.1/bits/list.tcc **** 	return iterator(__tmp);
  96:/opt/gcc-arm-none-eabi-9-2020-q2/arm-none-eabi/include/c++/9.3.1/bits/list.tcc ****       }
  97:/opt/gcc-arm-none-eabi-9-2020-q2/arm-none-eabi/include/c++/9.3.1/bits/list.tcc **** #endif
  98:/opt/gcc-arm-none-eabi-9-2020-q2/arm-none-eabi/include/c++/9.3.1/bits/list.tcc **** 
  99:/opt/gcc-arm-none-eabi-9-2020-q2/arm-none-eabi/include/c++/9.3.1/bits/list.tcc ****   template<typename _Tp, typename _Alloc>
 100:/opt/gcc-arm-none-eabi-9-2020-q2/arm-none-eabi/include/c++/9.3.1/bits/list.tcc ****     typename list<_Tp, _Alloc>::iterator
 101:/opt/gcc-arm-none-eabi-9-2020-q2/arm-none-eabi/include/c++/9.3.1/bits/list.tcc ****     list<_Tp, _Alloc>::
 102:/opt/gcc-arm-none-eabi-9-2020-q2/arm-none-eabi/include/c++/9.3.1/bits/list.tcc **** #if __cplusplus >= 201103L
 103:/opt/gcc-arm-none-eabi-9-2020-q2/arm-none-eabi/include/c++/9.3.1/bits/list.tcc ****     insert(const_iterator __position, const value_type& __x)
 104:/opt/gcc-arm-none-eabi-9-2020-q2/arm-none-eabi/include/c++/9.3.1/bits/list.tcc **** #else
 105:/opt/gcc-arm-none-eabi-9-2020-q2/arm-none-eabi/include/c++/9.3.1/bits/list.tcc ****     insert(iterator __position, const value_type& __x)
 106:/opt/gcc-arm-none-eabi-9-2020-q2/arm-none-eabi/include/c++/9.3.1/bits/list.tcc **** #endif
 107:/opt/gcc-arm-none-eabi-9-2020-q2/arm-none-eabi/include/c++/9.3.1/bits/list.tcc ****     {
 108:/opt/gcc-arm-none-eabi-9-2020-q2/arm-none-eabi/include/c++/9.3.1/bits/list.tcc ****       _Node* __tmp = _M_create_node(__x);
 109:/opt/gcc-arm-none-eabi-9-2020-q2/arm-none-eabi/include/c++/9.3.1/bits/list.tcc ****       __tmp->_M_hook(__position._M_const_cast()._M_node);
 110:/opt/gcc-arm-none-eabi-9-2020-q2/arm-none-eabi/include/c++/9.3.1/bits/list.tcc ****       this->_M_inc_size(1);
 111:/opt/gcc-arm-none-eabi-9-2020-q2/arm-none-eabi/include/c++/9.3.1/bits/list.tcc ****       return iterator(__tmp);
 112:/opt/gcc-arm-none-eabi-9-2020-q2/arm-none-eabi/include/c++/9.3.1/bits/list.tcc ****     }
 113:/opt/gcc-arm-none-eabi-9-2020-q2/arm-none-eabi/include/c++/9.3.1/bits/list.tcc **** 
 114:/opt/gcc-arm-none-eabi-9-2020-q2/arm-none-eabi/include/c++/9.3.1/bits/list.tcc **** #if __cplusplus >= 201103L
 115:/opt/gcc-arm-none-eabi-9-2020-q2/arm-none-eabi/include/c++/9.3.1/bits/list.tcc ****   template<typename _Tp, typename _Alloc>
ARM GAS  /tmp/ccQ3xVGk.s 			page 8


 116:/opt/gcc-arm-none-eabi-9-2020-q2/arm-none-eabi/include/c++/9.3.1/bits/list.tcc ****     typename list<_Tp, _Alloc>::iterator
 117:/opt/gcc-arm-none-eabi-9-2020-q2/arm-none-eabi/include/c++/9.3.1/bits/list.tcc ****     list<_Tp, _Alloc>::
 118:/opt/gcc-arm-none-eabi-9-2020-q2/arm-none-eabi/include/c++/9.3.1/bits/list.tcc ****     insert(const_iterator __position, size_type __n, const value_type& __x)
 119:/opt/gcc-arm-none-eabi-9-2020-q2/arm-none-eabi/include/c++/9.3.1/bits/list.tcc ****     {
 120:/opt/gcc-arm-none-eabi-9-2020-q2/arm-none-eabi/include/c++/9.3.1/bits/list.tcc ****       if (__n)
 121:/opt/gcc-arm-none-eabi-9-2020-q2/arm-none-eabi/include/c++/9.3.1/bits/list.tcc **** 	{
 122:/opt/gcc-arm-none-eabi-9-2020-q2/arm-none-eabi/include/c++/9.3.1/bits/list.tcc **** 	  list __tmp(__n, __x, get_allocator());
 123:/opt/gcc-arm-none-eabi-9-2020-q2/arm-none-eabi/include/c++/9.3.1/bits/list.tcc **** 	  iterator __it = __tmp.begin();
 124:/opt/gcc-arm-none-eabi-9-2020-q2/arm-none-eabi/include/c++/9.3.1/bits/list.tcc **** 	  splice(__position, __tmp);
 125:/opt/gcc-arm-none-eabi-9-2020-q2/arm-none-eabi/include/c++/9.3.1/bits/list.tcc **** 	  return __it;
 126:/opt/gcc-arm-none-eabi-9-2020-q2/arm-none-eabi/include/c++/9.3.1/bits/list.tcc **** 	}
 127:/opt/gcc-arm-none-eabi-9-2020-q2/arm-none-eabi/include/c++/9.3.1/bits/list.tcc ****       return __position._M_const_cast();
 128:/opt/gcc-arm-none-eabi-9-2020-q2/arm-none-eabi/include/c++/9.3.1/bits/list.tcc ****     }
 129:/opt/gcc-arm-none-eabi-9-2020-q2/arm-none-eabi/include/c++/9.3.1/bits/list.tcc **** 
 130:/opt/gcc-arm-none-eabi-9-2020-q2/arm-none-eabi/include/c++/9.3.1/bits/list.tcc ****   template<typename _Tp, typename _Alloc>
 131:/opt/gcc-arm-none-eabi-9-2020-q2/arm-none-eabi/include/c++/9.3.1/bits/list.tcc ****     template<typename _InputIterator, typename>
 132:/opt/gcc-arm-none-eabi-9-2020-q2/arm-none-eabi/include/c++/9.3.1/bits/list.tcc ****       typename list<_Tp, _Alloc>::iterator
 133:/opt/gcc-arm-none-eabi-9-2020-q2/arm-none-eabi/include/c++/9.3.1/bits/list.tcc ****       list<_Tp, _Alloc>::
 134:/opt/gcc-arm-none-eabi-9-2020-q2/arm-none-eabi/include/c++/9.3.1/bits/list.tcc ****       insert(const_iterator __position, _InputIterator __first,
 135:/opt/gcc-arm-none-eabi-9-2020-q2/arm-none-eabi/include/c++/9.3.1/bits/list.tcc **** 	     _InputIterator __last)
 136:/opt/gcc-arm-none-eabi-9-2020-q2/arm-none-eabi/include/c++/9.3.1/bits/list.tcc ****       {
 137:/opt/gcc-arm-none-eabi-9-2020-q2/arm-none-eabi/include/c++/9.3.1/bits/list.tcc **** 	list __tmp(__first, __last, get_allocator());
 138:/opt/gcc-arm-none-eabi-9-2020-q2/arm-none-eabi/include/c++/9.3.1/bits/list.tcc **** 	if (!__tmp.empty())
 139:/opt/gcc-arm-none-eabi-9-2020-q2/arm-none-eabi/include/c++/9.3.1/bits/list.tcc **** 	  {
 140:/opt/gcc-arm-none-eabi-9-2020-q2/arm-none-eabi/include/c++/9.3.1/bits/list.tcc **** 	    iterator __it = __tmp.begin();
 141:/opt/gcc-arm-none-eabi-9-2020-q2/arm-none-eabi/include/c++/9.3.1/bits/list.tcc **** 	    splice(__position, __tmp);
 142:/opt/gcc-arm-none-eabi-9-2020-q2/arm-none-eabi/include/c++/9.3.1/bits/list.tcc **** 	    return __it;
 143:/opt/gcc-arm-none-eabi-9-2020-q2/arm-none-eabi/include/c++/9.3.1/bits/list.tcc **** 	  }
 144:/opt/gcc-arm-none-eabi-9-2020-q2/arm-none-eabi/include/c++/9.3.1/bits/list.tcc **** 	return __position._M_const_cast();
 145:/opt/gcc-arm-none-eabi-9-2020-q2/arm-none-eabi/include/c++/9.3.1/bits/list.tcc ****       }
 146:/opt/gcc-arm-none-eabi-9-2020-q2/arm-none-eabi/include/c++/9.3.1/bits/list.tcc **** #endif
 147:/opt/gcc-arm-none-eabi-9-2020-q2/arm-none-eabi/include/c++/9.3.1/bits/list.tcc **** 
 148:/opt/gcc-arm-none-eabi-9-2020-q2/arm-none-eabi/include/c++/9.3.1/bits/list.tcc ****   template<typename _Tp, typename _Alloc>
 149:/opt/gcc-arm-none-eabi-9-2020-q2/arm-none-eabi/include/c++/9.3.1/bits/list.tcc ****     typename list<_Tp, _Alloc>::iterator
 150:/opt/gcc-arm-none-eabi-9-2020-q2/arm-none-eabi/include/c++/9.3.1/bits/list.tcc ****     list<_Tp, _Alloc>::
 151:/opt/gcc-arm-none-eabi-9-2020-q2/arm-none-eabi/include/c++/9.3.1/bits/list.tcc **** #if __cplusplus >= 201103L
 152:/opt/gcc-arm-none-eabi-9-2020-q2/arm-none-eabi/include/c++/9.3.1/bits/list.tcc ****     erase(const_iterator __position) noexcept
 153:/opt/gcc-arm-none-eabi-9-2020-q2/arm-none-eabi/include/c++/9.3.1/bits/list.tcc **** #else
 154:/opt/gcc-arm-none-eabi-9-2020-q2/arm-none-eabi/include/c++/9.3.1/bits/list.tcc ****     erase(iterator __position)
 155:/opt/gcc-arm-none-eabi-9-2020-q2/arm-none-eabi/include/c++/9.3.1/bits/list.tcc **** #endif
 156:/opt/gcc-arm-none-eabi-9-2020-q2/arm-none-eabi/include/c++/9.3.1/bits/list.tcc ****     {
 157:/opt/gcc-arm-none-eabi-9-2020-q2/arm-none-eabi/include/c++/9.3.1/bits/list.tcc ****       iterator __ret = iterator(__position._M_node->_M_next);
 158:/opt/gcc-arm-none-eabi-9-2020-q2/arm-none-eabi/include/c++/9.3.1/bits/list.tcc ****       _M_erase(__position._M_const_cast());
 159:/opt/gcc-arm-none-eabi-9-2020-q2/arm-none-eabi/include/c++/9.3.1/bits/list.tcc ****       return __ret;
 160:/opt/gcc-arm-none-eabi-9-2020-q2/arm-none-eabi/include/c++/9.3.1/bits/list.tcc ****     }
 161:/opt/gcc-arm-none-eabi-9-2020-q2/arm-none-eabi/include/c++/9.3.1/bits/list.tcc **** 
 162:/opt/gcc-arm-none-eabi-9-2020-q2/arm-none-eabi/include/c++/9.3.1/bits/list.tcc ****   // Return a const_iterator indicating the position to start inserting or
 163:/opt/gcc-arm-none-eabi-9-2020-q2/arm-none-eabi/include/c++/9.3.1/bits/list.tcc ****   // erasing elements (depending whether the list is growing or shrinking),
 164:/opt/gcc-arm-none-eabi-9-2020-q2/arm-none-eabi/include/c++/9.3.1/bits/list.tcc ****   // and set __new_size to the number of new elements that must be appended.
 165:/opt/gcc-arm-none-eabi-9-2020-q2/arm-none-eabi/include/c++/9.3.1/bits/list.tcc ****   // Equivalent to the following, but performed optimally:
 166:/opt/gcc-arm-none-eabi-9-2020-q2/arm-none-eabi/include/c++/9.3.1/bits/list.tcc ****   // if (__new_size < size()) {
 167:/opt/gcc-arm-none-eabi-9-2020-q2/arm-none-eabi/include/c++/9.3.1/bits/list.tcc ****   //   __new_size = 0;
 168:/opt/gcc-arm-none-eabi-9-2020-q2/arm-none-eabi/include/c++/9.3.1/bits/list.tcc ****   //   return std::next(begin(), __new_size);
 169:/opt/gcc-arm-none-eabi-9-2020-q2/arm-none-eabi/include/c++/9.3.1/bits/list.tcc ****   // } else {
 170:/opt/gcc-arm-none-eabi-9-2020-q2/arm-none-eabi/include/c++/9.3.1/bits/list.tcc ****   //   __newsize -= size();
 171:/opt/gcc-arm-none-eabi-9-2020-q2/arm-none-eabi/include/c++/9.3.1/bits/list.tcc ****   //   return end();
 172:/opt/gcc-arm-none-eabi-9-2020-q2/arm-none-eabi/include/c++/9.3.1/bits/list.tcc ****   // }
ARM GAS  /tmp/ccQ3xVGk.s 			page 9


 173:/opt/gcc-arm-none-eabi-9-2020-q2/arm-none-eabi/include/c++/9.3.1/bits/list.tcc ****   template<typename _Tp, typename _Alloc>
 174:/opt/gcc-arm-none-eabi-9-2020-q2/arm-none-eabi/include/c++/9.3.1/bits/list.tcc ****     typename list<_Tp, _Alloc>::const_iterator
 175:/opt/gcc-arm-none-eabi-9-2020-q2/arm-none-eabi/include/c++/9.3.1/bits/list.tcc ****     list<_Tp, _Alloc>::
 176:/opt/gcc-arm-none-eabi-9-2020-q2/arm-none-eabi/include/c++/9.3.1/bits/list.tcc ****     _M_resize_pos(size_type& __new_size) const
 177:/opt/gcc-arm-none-eabi-9-2020-q2/arm-none-eabi/include/c++/9.3.1/bits/list.tcc ****     {
 178:/opt/gcc-arm-none-eabi-9-2020-q2/arm-none-eabi/include/c++/9.3.1/bits/list.tcc ****       const_iterator __i;
 179:/opt/gcc-arm-none-eabi-9-2020-q2/arm-none-eabi/include/c++/9.3.1/bits/list.tcc **** #if _GLIBCXX_USE_CXX11_ABI
 180:/opt/gcc-arm-none-eabi-9-2020-q2/arm-none-eabi/include/c++/9.3.1/bits/list.tcc ****       const size_type __len = size();
 181:/opt/gcc-arm-none-eabi-9-2020-q2/arm-none-eabi/include/c++/9.3.1/bits/list.tcc ****       if (__new_size < __len)
 182:/opt/gcc-arm-none-eabi-9-2020-q2/arm-none-eabi/include/c++/9.3.1/bits/list.tcc **** 	{
 183:/opt/gcc-arm-none-eabi-9-2020-q2/arm-none-eabi/include/c++/9.3.1/bits/list.tcc **** 	  if (__new_size <= __len / 2)
 184:/opt/gcc-arm-none-eabi-9-2020-q2/arm-none-eabi/include/c++/9.3.1/bits/list.tcc **** 	    {
 185:/opt/gcc-arm-none-eabi-9-2020-q2/arm-none-eabi/include/c++/9.3.1/bits/list.tcc **** 	      __i = begin();
 186:/opt/gcc-arm-none-eabi-9-2020-q2/arm-none-eabi/include/c++/9.3.1/bits/list.tcc **** 	      std::advance(__i, __new_size);
 187:/opt/gcc-arm-none-eabi-9-2020-q2/arm-none-eabi/include/c++/9.3.1/bits/list.tcc **** 	    }
 188:/opt/gcc-arm-none-eabi-9-2020-q2/arm-none-eabi/include/c++/9.3.1/bits/list.tcc **** 	  else
 189:/opt/gcc-arm-none-eabi-9-2020-q2/arm-none-eabi/include/c++/9.3.1/bits/list.tcc **** 	    {
 190:/opt/gcc-arm-none-eabi-9-2020-q2/arm-none-eabi/include/c++/9.3.1/bits/list.tcc **** 	      __i = end();
 191:/opt/gcc-arm-none-eabi-9-2020-q2/arm-none-eabi/include/c++/9.3.1/bits/list.tcc **** 	      ptrdiff_t __num_erase = __len - __new_size;
 192:/opt/gcc-arm-none-eabi-9-2020-q2/arm-none-eabi/include/c++/9.3.1/bits/list.tcc **** 	      std::advance(__i, -__num_erase);
 193:/opt/gcc-arm-none-eabi-9-2020-q2/arm-none-eabi/include/c++/9.3.1/bits/list.tcc **** 	    }
 194:/opt/gcc-arm-none-eabi-9-2020-q2/arm-none-eabi/include/c++/9.3.1/bits/list.tcc **** 	  __new_size = 0;
 195:/opt/gcc-arm-none-eabi-9-2020-q2/arm-none-eabi/include/c++/9.3.1/bits/list.tcc **** 	  return __i;
 196:/opt/gcc-arm-none-eabi-9-2020-q2/arm-none-eabi/include/c++/9.3.1/bits/list.tcc **** 	}
 197:/opt/gcc-arm-none-eabi-9-2020-q2/arm-none-eabi/include/c++/9.3.1/bits/list.tcc ****       else
 198:/opt/gcc-arm-none-eabi-9-2020-q2/arm-none-eabi/include/c++/9.3.1/bits/list.tcc **** 	__i = end();
 199:/opt/gcc-arm-none-eabi-9-2020-q2/arm-none-eabi/include/c++/9.3.1/bits/list.tcc **** #else
 200:/opt/gcc-arm-none-eabi-9-2020-q2/arm-none-eabi/include/c++/9.3.1/bits/list.tcc ****       size_type __len = 0;
 201:/opt/gcc-arm-none-eabi-9-2020-q2/arm-none-eabi/include/c++/9.3.1/bits/list.tcc ****       for (__i = begin(); __i != end() && __len < __new_size; ++__i, ++__len)
 202:/opt/gcc-arm-none-eabi-9-2020-q2/arm-none-eabi/include/c++/9.3.1/bits/list.tcc ****         ;
 203:/opt/gcc-arm-none-eabi-9-2020-q2/arm-none-eabi/include/c++/9.3.1/bits/list.tcc **** #endif
 204:/opt/gcc-arm-none-eabi-9-2020-q2/arm-none-eabi/include/c++/9.3.1/bits/list.tcc ****       __new_size -= __len;
 205:/opt/gcc-arm-none-eabi-9-2020-q2/arm-none-eabi/include/c++/9.3.1/bits/list.tcc ****       return __i;
 206:/opt/gcc-arm-none-eabi-9-2020-q2/arm-none-eabi/include/c++/9.3.1/bits/list.tcc ****     }
 207:/opt/gcc-arm-none-eabi-9-2020-q2/arm-none-eabi/include/c++/9.3.1/bits/list.tcc **** 
 208:/opt/gcc-arm-none-eabi-9-2020-q2/arm-none-eabi/include/c++/9.3.1/bits/list.tcc **** #if __cplusplus >= 201103L
 209:/opt/gcc-arm-none-eabi-9-2020-q2/arm-none-eabi/include/c++/9.3.1/bits/list.tcc ****   template<typename _Tp, typename _Alloc>
 210:/opt/gcc-arm-none-eabi-9-2020-q2/arm-none-eabi/include/c++/9.3.1/bits/list.tcc ****     void
 211:/opt/gcc-arm-none-eabi-9-2020-q2/arm-none-eabi/include/c++/9.3.1/bits/list.tcc ****     list<_Tp, _Alloc>::
 212:/opt/gcc-arm-none-eabi-9-2020-q2/arm-none-eabi/include/c++/9.3.1/bits/list.tcc ****     _M_default_append(size_type __n)
 213:/opt/gcc-arm-none-eabi-9-2020-q2/arm-none-eabi/include/c++/9.3.1/bits/list.tcc ****     {
 214:/opt/gcc-arm-none-eabi-9-2020-q2/arm-none-eabi/include/c++/9.3.1/bits/list.tcc ****       size_type __i = 0;
 215:/opt/gcc-arm-none-eabi-9-2020-q2/arm-none-eabi/include/c++/9.3.1/bits/list.tcc ****       __try
 216:/opt/gcc-arm-none-eabi-9-2020-q2/arm-none-eabi/include/c++/9.3.1/bits/list.tcc **** 	{
 217:/opt/gcc-arm-none-eabi-9-2020-q2/arm-none-eabi/include/c++/9.3.1/bits/list.tcc **** 	  for (; __i < __n; ++__i)
 218:/opt/gcc-arm-none-eabi-9-2020-q2/arm-none-eabi/include/c++/9.3.1/bits/list.tcc **** 	    emplace_back();
 219:/opt/gcc-arm-none-eabi-9-2020-q2/arm-none-eabi/include/c++/9.3.1/bits/list.tcc **** 	}
 220:/opt/gcc-arm-none-eabi-9-2020-q2/arm-none-eabi/include/c++/9.3.1/bits/list.tcc ****       __catch(...)
 221:/opt/gcc-arm-none-eabi-9-2020-q2/arm-none-eabi/include/c++/9.3.1/bits/list.tcc **** 	{
 222:/opt/gcc-arm-none-eabi-9-2020-q2/arm-none-eabi/include/c++/9.3.1/bits/list.tcc **** 	  for (; __i; --__i)
 223:/opt/gcc-arm-none-eabi-9-2020-q2/arm-none-eabi/include/c++/9.3.1/bits/list.tcc **** 	    pop_back();
 224:/opt/gcc-arm-none-eabi-9-2020-q2/arm-none-eabi/include/c++/9.3.1/bits/list.tcc **** 	  __throw_exception_again;
 225:/opt/gcc-arm-none-eabi-9-2020-q2/arm-none-eabi/include/c++/9.3.1/bits/list.tcc **** 	}
 226:/opt/gcc-arm-none-eabi-9-2020-q2/arm-none-eabi/include/c++/9.3.1/bits/list.tcc ****     }
 227:/opt/gcc-arm-none-eabi-9-2020-q2/arm-none-eabi/include/c++/9.3.1/bits/list.tcc **** 
 228:/opt/gcc-arm-none-eabi-9-2020-q2/arm-none-eabi/include/c++/9.3.1/bits/list.tcc ****   template<typename _Tp, typename _Alloc>
 229:/opt/gcc-arm-none-eabi-9-2020-q2/arm-none-eabi/include/c++/9.3.1/bits/list.tcc ****     void
ARM GAS  /tmp/ccQ3xVGk.s 			page 10


 230:/opt/gcc-arm-none-eabi-9-2020-q2/arm-none-eabi/include/c++/9.3.1/bits/list.tcc ****     list<_Tp, _Alloc>::
 231:/opt/gcc-arm-none-eabi-9-2020-q2/arm-none-eabi/include/c++/9.3.1/bits/list.tcc ****     resize(size_type __new_size)
 232:/opt/gcc-arm-none-eabi-9-2020-q2/arm-none-eabi/include/c++/9.3.1/bits/list.tcc ****     {
 233:/opt/gcc-arm-none-eabi-9-2020-q2/arm-none-eabi/include/c++/9.3.1/bits/list.tcc ****       const_iterator __i = _M_resize_pos(__new_size);
 234:/opt/gcc-arm-none-eabi-9-2020-q2/arm-none-eabi/include/c++/9.3.1/bits/list.tcc ****       if (__new_size)
 235:/opt/gcc-arm-none-eabi-9-2020-q2/arm-none-eabi/include/c++/9.3.1/bits/list.tcc **** 	_M_default_append(__new_size);
 236:/opt/gcc-arm-none-eabi-9-2020-q2/arm-none-eabi/include/c++/9.3.1/bits/list.tcc ****       else
 237:/opt/gcc-arm-none-eabi-9-2020-q2/arm-none-eabi/include/c++/9.3.1/bits/list.tcc ****         erase(__i, end());
 238:/opt/gcc-arm-none-eabi-9-2020-q2/arm-none-eabi/include/c++/9.3.1/bits/list.tcc ****     }
 239:/opt/gcc-arm-none-eabi-9-2020-q2/arm-none-eabi/include/c++/9.3.1/bits/list.tcc **** 
 240:/opt/gcc-arm-none-eabi-9-2020-q2/arm-none-eabi/include/c++/9.3.1/bits/list.tcc ****   template<typename _Tp, typename _Alloc>
 241:/opt/gcc-arm-none-eabi-9-2020-q2/arm-none-eabi/include/c++/9.3.1/bits/list.tcc ****     void
 242:/opt/gcc-arm-none-eabi-9-2020-q2/arm-none-eabi/include/c++/9.3.1/bits/list.tcc ****     list<_Tp, _Alloc>::
 243:/opt/gcc-arm-none-eabi-9-2020-q2/arm-none-eabi/include/c++/9.3.1/bits/list.tcc ****     resize(size_type __new_size, const value_type& __x)
 244:/opt/gcc-arm-none-eabi-9-2020-q2/arm-none-eabi/include/c++/9.3.1/bits/list.tcc ****     {
 245:/opt/gcc-arm-none-eabi-9-2020-q2/arm-none-eabi/include/c++/9.3.1/bits/list.tcc ****       const_iterator __i = _M_resize_pos(__new_size);
 246:/opt/gcc-arm-none-eabi-9-2020-q2/arm-none-eabi/include/c++/9.3.1/bits/list.tcc ****       if (__new_size)
 247:/opt/gcc-arm-none-eabi-9-2020-q2/arm-none-eabi/include/c++/9.3.1/bits/list.tcc ****         insert(end(), __new_size, __x);
 248:/opt/gcc-arm-none-eabi-9-2020-q2/arm-none-eabi/include/c++/9.3.1/bits/list.tcc ****       else
 249:/opt/gcc-arm-none-eabi-9-2020-q2/arm-none-eabi/include/c++/9.3.1/bits/list.tcc ****         erase(__i, end());
 250:/opt/gcc-arm-none-eabi-9-2020-q2/arm-none-eabi/include/c++/9.3.1/bits/list.tcc ****     }
 251:/opt/gcc-arm-none-eabi-9-2020-q2/arm-none-eabi/include/c++/9.3.1/bits/list.tcc **** #else
 252:/opt/gcc-arm-none-eabi-9-2020-q2/arm-none-eabi/include/c++/9.3.1/bits/list.tcc ****   template<typename _Tp, typename _Alloc>
 253:/opt/gcc-arm-none-eabi-9-2020-q2/arm-none-eabi/include/c++/9.3.1/bits/list.tcc ****     void
 254:/opt/gcc-arm-none-eabi-9-2020-q2/arm-none-eabi/include/c++/9.3.1/bits/list.tcc ****     list<_Tp, _Alloc>::
 255:/opt/gcc-arm-none-eabi-9-2020-q2/arm-none-eabi/include/c++/9.3.1/bits/list.tcc ****     resize(size_type __new_size, value_type __x)
 256:/opt/gcc-arm-none-eabi-9-2020-q2/arm-none-eabi/include/c++/9.3.1/bits/list.tcc ****     {
 257:/opt/gcc-arm-none-eabi-9-2020-q2/arm-none-eabi/include/c++/9.3.1/bits/list.tcc ****       const_iterator __i = _M_resize_pos(__new_size);
 258:/opt/gcc-arm-none-eabi-9-2020-q2/arm-none-eabi/include/c++/9.3.1/bits/list.tcc ****       if (__new_size)
 259:/opt/gcc-arm-none-eabi-9-2020-q2/arm-none-eabi/include/c++/9.3.1/bits/list.tcc ****         insert(end(), __new_size, __x);
 260:/opt/gcc-arm-none-eabi-9-2020-q2/arm-none-eabi/include/c++/9.3.1/bits/list.tcc ****       else
 261:/opt/gcc-arm-none-eabi-9-2020-q2/arm-none-eabi/include/c++/9.3.1/bits/list.tcc ****         erase(__i._M_const_cast(), end());
 262:/opt/gcc-arm-none-eabi-9-2020-q2/arm-none-eabi/include/c++/9.3.1/bits/list.tcc ****     }
 263:/opt/gcc-arm-none-eabi-9-2020-q2/arm-none-eabi/include/c++/9.3.1/bits/list.tcc **** #endif
 264:/opt/gcc-arm-none-eabi-9-2020-q2/arm-none-eabi/include/c++/9.3.1/bits/list.tcc **** 
 265:/opt/gcc-arm-none-eabi-9-2020-q2/arm-none-eabi/include/c++/9.3.1/bits/list.tcc ****   template<typename _Tp, typename _Alloc>
 266:/opt/gcc-arm-none-eabi-9-2020-q2/arm-none-eabi/include/c++/9.3.1/bits/list.tcc ****     list<_Tp, _Alloc>&
 267:/opt/gcc-arm-none-eabi-9-2020-q2/arm-none-eabi/include/c++/9.3.1/bits/list.tcc ****     list<_Tp, _Alloc>::
 268:/opt/gcc-arm-none-eabi-9-2020-q2/arm-none-eabi/include/c++/9.3.1/bits/list.tcc ****     operator=(const list& __x)
 269:/opt/gcc-arm-none-eabi-9-2020-q2/arm-none-eabi/include/c++/9.3.1/bits/list.tcc ****     {
 270:/opt/gcc-arm-none-eabi-9-2020-q2/arm-none-eabi/include/c++/9.3.1/bits/list.tcc ****       if (this != std::__addressof(__x))
 271:/opt/gcc-arm-none-eabi-9-2020-q2/arm-none-eabi/include/c++/9.3.1/bits/list.tcc **** 	{
 272:/opt/gcc-arm-none-eabi-9-2020-q2/arm-none-eabi/include/c++/9.3.1/bits/list.tcc **** #if __cplusplus >= 201103L
 273:/opt/gcc-arm-none-eabi-9-2020-q2/arm-none-eabi/include/c++/9.3.1/bits/list.tcc **** 	  if (_Node_alloc_traits::_S_propagate_on_copy_assign())
 274:/opt/gcc-arm-none-eabi-9-2020-q2/arm-none-eabi/include/c++/9.3.1/bits/list.tcc **** 	    {
 275:/opt/gcc-arm-none-eabi-9-2020-q2/arm-none-eabi/include/c++/9.3.1/bits/list.tcc ****               auto& __this_alloc = this->_M_get_Node_allocator();
 276:/opt/gcc-arm-none-eabi-9-2020-q2/arm-none-eabi/include/c++/9.3.1/bits/list.tcc ****               auto& __that_alloc = __x._M_get_Node_allocator();
 277:/opt/gcc-arm-none-eabi-9-2020-q2/arm-none-eabi/include/c++/9.3.1/bits/list.tcc ****               if (!_Node_alloc_traits::_S_always_equal()
 278:/opt/gcc-arm-none-eabi-9-2020-q2/arm-none-eabi/include/c++/9.3.1/bits/list.tcc **** 	          && __this_alloc != __that_alloc)
 279:/opt/gcc-arm-none-eabi-9-2020-q2/arm-none-eabi/include/c++/9.3.1/bits/list.tcc **** 	        {
 280:/opt/gcc-arm-none-eabi-9-2020-q2/arm-none-eabi/include/c++/9.3.1/bits/list.tcc **** 		  // replacement allocator cannot free existing storage
 281:/opt/gcc-arm-none-eabi-9-2020-q2/arm-none-eabi/include/c++/9.3.1/bits/list.tcc **** 		  clear();
 282:/opt/gcc-arm-none-eabi-9-2020-q2/arm-none-eabi/include/c++/9.3.1/bits/list.tcc **** 		}
 283:/opt/gcc-arm-none-eabi-9-2020-q2/arm-none-eabi/include/c++/9.3.1/bits/list.tcc **** 	      std::__alloc_on_copy(__this_alloc, __that_alloc);
 284:/opt/gcc-arm-none-eabi-9-2020-q2/arm-none-eabi/include/c++/9.3.1/bits/list.tcc ****             }
 285:/opt/gcc-arm-none-eabi-9-2020-q2/arm-none-eabi/include/c++/9.3.1/bits/list.tcc **** #endif
 286:/opt/gcc-arm-none-eabi-9-2020-q2/arm-none-eabi/include/c++/9.3.1/bits/list.tcc **** 	  _M_assign_dispatch(__x.begin(), __x.end(), __false_type());
ARM GAS  /tmp/ccQ3xVGk.s 			page 11


 287:/opt/gcc-arm-none-eabi-9-2020-q2/arm-none-eabi/include/c++/9.3.1/bits/list.tcc **** 	}
 288:/opt/gcc-arm-none-eabi-9-2020-q2/arm-none-eabi/include/c++/9.3.1/bits/list.tcc ****       return *this;
 289:/opt/gcc-arm-none-eabi-9-2020-q2/arm-none-eabi/include/c++/9.3.1/bits/list.tcc ****     }
 290:/opt/gcc-arm-none-eabi-9-2020-q2/arm-none-eabi/include/c++/9.3.1/bits/list.tcc **** 
 291:/opt/gcc-arm-none-eabi-9-2020-q2/arm-none-eabi/include/c++/9.3.1/bits/list.tcc ****   template<typename _Tp, typename _Alloc>
 292:/opt/gcc-arm-none-eabi-9-2020-q2/arm-none-eabi/include/c++/9.3.1/bits/list.tcc ****     void
 293:/opt/gcc-arm-none-eabi-9-2020-q2/arm-none-eabi/include/c++/9.3.1/bits/list.tcc ****     list<_Tp, _Alloc>::
 294:/opt/gcc-arm-none-eabi-9-2020-q2/arm-none-eabi/include/c++/9.3.1/bits/list.tcc ****     _M_fill_assign(size_type __n, const value_type& __val)
 295:/opt/gcc-arm-none-eabi-9-2020-q2/arm-none-eabi/include/c++/9.3.1/bits/list.tcc ****     {
 296:/opt/gcc-arm-none-eabi-9-2020-q2/arm-none-eabi/include/c++/9.3.1/bits/list.tcc ****       iterator __i = begin();
 297:/opt/gcc-arm-none-eabi-9-2020-q2/arm-none-eabi/include/c++/9.3.1/bits/list.tcc ****       for (; __i != end() && __n > 0; ++__i, --__n)
 298:/opt/gcc-arm-none-eabi-9-2020-q2/arm-none-eabi/include/c++/9.3.1/bits/list.tcc ****         *__i = __val;
 299:/opt/gcc-arm-none-eabi-9-2020-q2/arm-none-eabi/include/c++/9.3.1/bits/list.tcc ****       if (__n > 0)
 300:/opt/gcc-arm-none-eabi-9-2020-q2/arm-none-eabi/include/c++/9.3.1/bits/list.tcc ****         insert(end(), __n, __val);
 301:/opt/gcc-arm-none-eabi-9-2020-q2/arm-none-eabi/include/c++/9.3.1/bits/list.tcc ****       else
 302:/opt/gcc-arm-none-eabi-9-2020-q2/arm-none-eabi/include/c++/9.3.1/bits/list.tcc ****         erase(__i, end());
 303:/opt/gcc-arm-none-eabi-9-2020-q2/arm-none-eabi/include/c++/9.3.1/bits/list.tcc ****     }
 304:/opt/gcc-arm-none-eabi-9-2020-q2/arm-none-eabi/include/c++/9.3.1/bits/list.tcc **** 
 305:/opt/gcc-arm-none-eabi-9-2020-q2/arm-none-eabi/include/c++/9.3.1/bits/list.tcc ****   template<typename _Tp, typename _Alloc>
 306:/opt/gcc-arm-none-eabi-9-2020-q2/arm-none-eabi/include/c++/9.3.1/bits/list.tcc ****     template <typename _InputIterator>
 307:/opt/gcc-arm-none-eabi-9-2020-q2/arm-none-eabi/include/c++/9.3.1/bits/list.tcc ****       void
 308:/opt/gcc-arm-none-eabi-9-2020-q2/arm-none-eabi/include/c++/9.3.1/bits/list.tcc ****       list<_Tp, _Alloc>::
 309:/opt/gcc-arm-none-eabi-9-2020-q2/arm-none-eabi/include/c++/9.3.1/bits/list.tcc ****       _M_assign_dispatch(_InputIterator __first2, _InputIterator __last2,
 310:/opt/gcc-arm-none-eabi-9-2020-q2/arm-none-eabi/include/c++/9.3.1/bits/list.tcc **** 			 __false_type)
 311:/opt/gcc-arm-none-eabi-9-2020-q2/arm-none-eabi/include/c++/9.3.1/bits/list.tcc ****       {
 312:/opt/gcc-arm-none-eabi-9-2020-q2/arm-none-eabi/include/c++/9.3.1/bits/list.tcc ****         iterator __first1 = begin();
 313:/opt/gcc-arm-none-eabi-9-2020-q2/arm-none-eabi/include/c++/9.3.1/bits/list.tcc ****         iterator __last1 = end();
 314:/opt/gcc-arm-none-eabi-9-2020-q2/arm-none-eabi/include/c++/9.3.1/bits/list.tcc ****         for (; __first1 != __last1 && __first2 != __last2;
 315:/opt/gcc-arm-none-eabi-9-2020-q2/arm-none-eabi/include/c++/9.3.1/bits/list.tcc **** 	     ++__first1, (void)++__first2)
 316:/opt/gcc-arm-none-eabi-9-2020-q2/arm-none-eabi/include/c++/9.3.1/bits/list.tcc ****           *__first1 = *__first2;
 317:/opt/gcc-arm-none-eabi-9-2020-q2/arm-none-eabi/include/c++/9.3.1/bits/list.tcc ****         if (__first2 == __last2)
 318:/opt/gcc-arm-none-eabi-9-2020-q2/arm-none-eabi/include/c++/9.3.1/bits/list.tcc ****           erase(__first1, __last1);
 319:/opt/gcc-arm-none-eabi-9-2020-q2/arm-none-eabi/include/c++/9.3.1/bits/list.tcc ****         else
 320:/opt/gcc-arm-none-eabi-9-2020-q2/arm-none-eabi/include/c++/9.3.1/bits/list.tcc ****           insert(__last1, __first2, __last2);
 321:/opt/gcc-arm-none-eabi-9-2020-q2/arm-none-eabi/include/c++/9.3.1/bits/list.tcc ****       }
 322:/opt/gcc-arm-none-eabi-9-2020-q2/arm-none-eabi/include/c++/9.3.1/bits/list.tcc **** 
 323:/opt/gcc-arm-none-eabi-9-2020-q2/arm-none-eabi/include/c++/9.3.1/bits/list.tcc **** #if __cplusplus > 201703L
 324:/opt/gcc-arm-none-eabi-9-2020-q2/arm-none-eabi/include/c++/9.3.1/bits/list.tcc **** # define _GLIBCXX20_ONLY(__expr) __expr
 325:/opt/gcc-arm-none-eabi-9-2020-q2/arm-none-eabi/include/c++/9.3.1/bits/list.tcc **** #else
 326:/opt/gcc-arm-none-eabi-9-2020-q2/arm-none-eabi/include/c++/9.3.1/bits/list.tcc **** # define _GLIBCXX20_ONLY(__expr)
 327:/opt/gcc-arm-none-eabi-9-2020-q2/arm-none-eabi/include/c++/9.3.1/bits/list.tcc **** #endif
 328:/opt/gcc-arm-none-eabi-9-2020-q2/arm-none-eabi/include/c++/9.3.1/bits/list.tcc **** 
 329:/opt/gcc-arm-none-eabi-9-2020-q2/arm-none-eabi/include/c++/9.3.1/bits/list.tcc ****   template<typename _Tp, typename _Alloc>
 330:/opt/gcc-arm-none-eabi-9-2020-q2/arm-none-eabi/include/c++/9.3.1/bits/list.tcc ****     typename list<_Tp, _Alloc>::__remove_return_type
 331:/opt/gcc-arm-none-eabi-9-2020-q2/arm-none-eabi/include/c++/9.3.1/bits/list.tcc ****     list<_Tp, _Alloc>::
 332:/opt/gcc-arm-none-eabi-9-2020-q2/arm-none-eabi/include/c++/9.3.1/bits/list.tcc ****     remove(const value_type& __value)
 333:/opt/gcc-arm-none-eabi-9-2020-q2/arm-none-eabi/include/c++/9.3.1/bits/list.tcc ****     {
 334:/opt/gcc-arm-none-eabi-9-2020-q2/arm-none-eabi/include/c++/9.3.1/bits/list.tcc ****       size_type __removed __attribute__((__unused__)) = 0;
 335:/opt/gcc-arm-none-eabi-9-2020-q2/arm-none-eabi/include/c++/9.3.1/bits/list.tcc ****       iterator __first = begin();
 336:/opt/gcc-arm-none-eabi-9-2020-q2/arm-none-eabi/include/c++/9.3.1/bits/list.tcc ****       iterator __last = end();
 337:/opt/gcc-arm-none-eabi-9-2020-q2/arm-none-eabi/include/c++/9.3.1/bits/list.tcc ****       iterator __extra = __last;
 338:/opt/gcc-arm-none-eabi-9-2020-q2/arm-none-eabi/include/c++/9.3.1/bits/list.tcc ****       while (__first != __last)
 339:/opt/gcc-arm-none-eabi-9-2020-q2/arm-none-eabi/include/c++/9.3.1/bits/list.tcc **** 	{
 340:/opt/gcc-arm-none-eabi-9-2020-q2/arm-none-eabi/include/c++/9.3.1/bits/list.tcc **** 	  iterator __next = __first;
 341:/opt/gcc-arm-none-eabi-9-2020-q2/arm-none-eabi/include/c++/9.3.1/bits/list.tcc **** 	  ++__next;
 342:/opt/gcc-arm-none-eabi-9-2020-q2/arm-none-eabi/include/c++/9.3.1/bits/list.tcc **** 	  if (*__first == __value)
 343:/opt/gcc-arm-none-eabi-9-2020-q2/arm-none-eabi/include/c++/9.3.1/bits/list.tcc **** 	    {
ARM GAS  /tmp/ccQ3xVGk.s 			page 12


 344:/opt/gcc-arm-none-eabi-9-2020-q2/arm-none-eabi/include/c++/9.3.1/bits/list.tcc **** 	      // _GLIBCXX_RESOLVE_LIB_DEFECTS
 345:/opt/gcc-arm-none-eabi-9-2020-q2/arm-none-eabi/include/c++/9.3.1/bits/list.tcc **** 	      // 526. Is it undefined if a function in the standard changes
 346:/opt/gcc-arm-none-eabi-9-2020-q2/arm-none-eabi/include/c++/9.3.1/bits/list.tcc **** 	      // in parameters?
 347:/opt/gcc-arm-none-eabi-9-2020-q2/arm-none-eabi/include/c++/9.3.1/bits/list.tcc **** 	      if (std::__addressof(*__first) != std::__addressof(__value))
 348:/opt/gcc-arm-none-eabi-9-2020-q2/arm-none-eabi/include/c++/9.3.1/bits/list.tcc **** 		{
 349:/opt/gcc-arm-none-eabi-9-2020-q2/arm-none-eabi/include/c++/9.3.1/bits/list.tcc **** 		  _M_erase(__first);
 350:/opt/gcc-arm-none-eabi-9-2020-q2/arm-none-eabi/include/c++/9.3.1/bits/list.tcc **** 		  _GLIBCXX20_ONLY( __removed++ );
 351:/opt/gcc-arm-none-eabi-9-2020-q2/arm-none-eabi/include/c++/9.3.1/bits/list.tcc **** 		}
 352:/opt/gcc-arm-none-eabi-9-2020-q2/arm-none-eabi/include/c++/9.3.1/bits/list.tcc **** 	      else
 353:/opt/gcc-arm-none-eabi-9-2020-q2/arm-none-eabi/include/c++/9.3.1/bits/list.tcc **** 		__extra = __first;
 354:/opt/gcc-arm-none-eabi-9-2020-q2/arm-none-eabi/include/c++/9.3.1/bits/list.tcc **** 	    }
 355:/opt/gcc-arm-none-eabi-9-2020-q2/arm-none-eabi/include/c++/9.3.1/bits/list.tcc **** 	  __first = __next;
 356:/opt/gcc-arm-none-eabi-9-2020-q2/arm-none-eabi/include/c++/9.3.1/bits/list.tcc **** 	}
 357:/opt/gcc-arm-none-eabi-9-2020-q2/arm-none-eabi/include/c++/9.3.1/bits/list.tcc ****       if (__extra != __last)
 358:/opt/gcc-arm-none-eabi-9-2020-q2/arm-none-eabi/include/c++/9.3.1/bits/list.tcc **** 	{
 359:/opt/gcc-arm-none-eabi-9-2020-q2/arm-none-eabi/include/c++/9.3.1/bits/list.tcc **** 	  _M_erase(__extra);
 360:/opt/gcc-arm-none-eabi-9-2020-q2/arm-none-eabi/include/c++/9.3.1/bits/list.tcc **** 	  _GLIBCXX20_ONLY( __removed++ );
 361:/opt/gcc-arm-none-eabi-9-2020-q2/arm-none-eabi/include/c++/9.3.1/bits/list.tcc **** 	}
 362:/opt/gcc-arm-none-eabi-9-2020-q2/arm-none-eabi/include/c++/9.3.1/bits/list.tcc ****       return _GLIBCXX20_ONLY( __removed );
 363:/opt/gcc-arm-none-eabi-9-2020-q2/arm-none-eabi/include/c++/9.3.1/bits/list.tcc ****     }
 364:/opt/gcc-arm-none-eabi-9-2020-q2/arm-none-eabi/include/c++/9.3.1/bits/list.tcc **** 
 365:/opt/gcc-arm-none-eabi-9-2020-q2/arm-none-eabi/include/c++/9.3.1/bits/list.tcc ****   template<typename _Tp, typename _Alloc>
 366:/opt/gcc-arm-none-eabi-9-2020-q2/arm-none-eabi/include/c++/9.3.1/bits/list.tcc ****     typename list<_Tp, _Alloc>::__remove_return_type
 367:/opt/gcc-arm-none-eabi-9-2020-q2/arm-none-eabi/include/c++/9.3.1/bits/list.tcc ****     list<_Tp, _Alloc>::
 368:/opt/gcc-arm-none-eabi-9-2020-q2/arm-none-eabi/include/c++/9.3.1/bits/list.tcc ****     unique()
 369:/opt/gcc-arm-none-eabi-9-2020-q2/arm-none-eabi/include/c++/9.3.1/bits/list.tcc ****     {
 370:/opt/gcc-arm-none-eabi-9-2020-q2/arm-none-eabi/include/c++/9.3.1/bits/list.tcc ****       iterator __first = begin();
 371:/opt/gcc-arm-none-eabi-9-2020-q2/arm-none-eabi/include/c++/9.3.1/bits/list.tcc ****       iterator __last = end();
 372:/opt/gcc-arm-none-eabi-9-2020-q2/arm-none-eabi/include/c++/9.3.1/bits/list.tcc ****       if (__first == __last)
 373:/opt/gcc-arm-none-eabi-9-2020-q2/arm-none-eabi/include/c++/9.3.1/bits/list.tcc **** 	return _GLIBCXX20_ONLY( 0 );
 374:/opt/gcc-arm-none-eabi-9-2020-q2/arm-none-eabi/include/c++/9.3.1/bits/list.tcc ****       size_type __removed __attribute__((__unused__)) = 0;
 375:/opt/gcc-arm-none-eabi-9-2020-q2/arm-none-eabi/include/c++/9.3.1/bits/list.tcc ****       iterator __next = __first;
 376:/opt/gcc-arm-none-eabi-9-2020-q2/arm-none-eabi/include/c++/9.3.1/bits/list.tcc ****       while (++__next != __last)
 377:/opt/gcc-arm-none-eabi-9-2020-q2/arm-none-eabi/include/c++/9.3.1/bits/list.tcc **** 	{
 378:/opt/gcc-arm-none-eabi-9-2020-q2/arm-none-eabi/include/c++/9.3.1/bits/list.tcc **** 	  if (*__first == *__next)
 379:/opt/gcc-arm-none-eabi-9-2020-q2/arm-none-eabi/include/c++/9.3.1/bits/list.tcc **** 	    {
 380:/opt/gcc-arm-none-eabi-9-2020-q2/arm-none-eabi/include/c++/9.3.1/bits/list.tcc **** 	      _M_erase(__next);
 381:/opt/gcc-arm-none-eabi-9-2020-q2/arm-none-eabi/include/c++/9.3.1/bits/list.tcc **** 	      _GLIBCXX20_ONLY( __removed++ );
 382:/opt/gcc-arm-none-eabi-9-2020-q2/arm-none-eabi/include/c++/9.3.1/bits/list.tcc **** 	    }
 383:/opt/gcc-arm-none-eabi-9-2020-q2/arm-none-eabi/include/c++/9.3.1/bits/list.tcc **** 	  else
 384:/opt/gcc-arm-none-eabi-9-2020-q2/arm-none-eabi/include/c++/9.3.1/bits/list.tcc **** 	    __first = __next;
 385:/opt/gcc-arm-none-eabi-9-2020-q2/arm-none-eabi/include/c++/9.3.1/bits/list.tcc **** 	  __next = __first;
 386:/opt/gcc-arm-none-eabi-9-2020-q2/arm-none-eabi/include/c++/9.3.1/bits/list.tcc **** 	}
 387:/opt/gcc-arm-none-eabi-9-2020-q2/arm-none-eabi/include/c++/9.3.1/bits/list.tcc ****       return _GLIBCXX20_ONLY( __removed );
 388:/opt/gcc-arm-none-eabi-9-2020-q2/arm-none-eabi/include/c++/9.3.1/bits/list.tcc ****     }
 389:/opt/gcc-arm-none-eabi-9-2020-q2/arm-none-eabi/include/c++/9.3.1/bits/list.tcc **** 
 390:/opt/gcc-arm-none-eabi-9-2020-q2/arm-none-eabi/include/c++/9.3.1/bits/list.tcc ****   template<typename _Tp, typename _Alloc>
 391:/opt/gcc-arm-none-eabi-9-2020-q2/arm-none-eabi/include/c++/9.3.1/bits/list.tcc ****     void
 392:/opt/gcc-arm-none-eabi-9-2020-q2/arm-none-eabi/include/c++/9.3.1/bits/list.tcc ****     list<_Tp, _Alloc>::
 393:/opt/gcc-arm-none-eabi-9-2020-q2/arm-none-eabi/include/c++/9.3.1/bits/list.tcc **** #if __cplusplus >= 201103L
 394:/opt/gcc-arm-none-eabi-9-2020-q2/arm-none-eabi/include/c++/9.3.1/bits/list.tcc ****     merge(list&& __x)
 395:/opt/gcc-arm-none-eabi-9-2020-q2/arm-none-eabi/include/c++/9.3.1/bits/list.tcc **** #else
 396:/opt/gcc-arm-none-eabi-9-2020-q2/arm-none-eabi/include/c++/9.3.1/bits/list.tcc ****     merge(list& __x)
 397:/opt/gcc-arm-none-eabi-9-2020-q2/arm-none-eabi/include/c++/9.3.1/bits/list.tcc **** #endif
 398:/opt/gcc-arm-none-eabi-9-2020-q2/arm-none-eabi/include/c++/9.3.1/bits/list.tcc ****     {
 399:/opt/gcc-arm-none-eabi-9-2020-q2/arm-none-eabi/include/c++/9.3.1/bits/list.tcc ****       // _GLIBCXX_RESOLVE_LIB_DEFECTS
 400:/opt/gcc-arm-none-eabi-9-2020-q2/arm-none-eabi/include/c++/9.3.1/bits/list.tcc ****       // 300. list::merge() specification incomplete
ARM GAS  /tmp/ccQ3xVGk.s 			page 13


 401:/opt/gcc-arm-none-eabi-9-2020-q2/arm-none-eabi/include/c++/9.3.1/bits/list.tcc ****       if (this != std::__addressof(__x))
 402:/opt/gcc-arm-none-eabi-9-2020-q2/arm-none-eabi/include/c++/9.3.1/bits/list.tcc **** 	{
 403:/opt/gcc-arm-none-eabi-9-2020-q2/arm-none-eabi/include/c++/9.3.1/bits/list.tcc **** 	  _M_check_equal_allocators(__x);
 404:/opt/gcc-arm-none-eabi-9-2020-q2/arm-none-eabi/include/c++/9.3.1/bits/list.tcc **** 
 405:/opt/gcc-arm-none-eabi-9-2020-q2/arm-none-eabi/include/c++/9.3.1/bits/list.tcc **** 	  iterator __first1 = begin();
 406:/opt/gcc-arm-none-eabi-9-2020-q2/arm-none-eabi/include/c++/9.3.1/bits/list.tcc **** 	  iterator __last1 = end();
 407:/opt/gcc-arm-none-eabi-9-2020-q2/arm-none-eabi/include/c++/9.3.1/bits/list.tcc **** 	  iterator __first2 = __x.begin();
 408:/opt/gcc-arm-none-eabi-9-2020-q2/arm-none-eabi/include/c++/9.3.1/bits/list.tcc **** 	  iterator __last2 = __x.end();
 409:/opt/gcc-arm-none-eabi-9-2020-q2/arm-none-eabi/include/c++/9.3.1/bits/list.tcc **** 	  const size_t __orig_size = __x.size();
 410:/opt/gcc-arm-none-eabi-9-2020-q2/arm-none-eabi/include/c++/9.3.1/bits/list.tcc **** 	  __try {
 411:/opt/gcc-arm-none-eabi-9-2020-q2/arm-none-eabi/include/c++/9.3.1/bits/list.tcc **** 	    while (__first1 != __last1 && __first2 != __last2)
 412:/opt/gcc-arm-none-eabi-9-2020-q2/arm-none-eabi/include/c++/9.3.1/bits/list.tcc **** 	      if (*__first2 < *__first1)
 413:/opt/gcc-arm-none-eabi-9-2020-q2/arm-none-eabi/include/c++/9.3.1/bits/list.tcc **** 		{
 414:/opt/gcc-arm-none-eabi-9-2020-q2/arm-none-eabi/include/c++/9.3.1/bits/list.tcc **** 		  iterator __next = __first2;
 415:/opt/gcc-arm-none-eabi-9-2020-q2/arm-none-eabi/include/c++/9.3.1/bits/list.tcc **** 		  _M_transfer(__first1, __first2, ++__next);
 416:/opt/gcc-arm-none-eabi-9-2020-q2/arm-none-eabi/include/c++/9.3.1/bits/list.tcc **** 		  __first2 = __next;
 417:/opt/gcc-arm-none-eabi-9-2020-q2/arm-none-eabi/include/c++/9.3.1/bits/list.tcc **** 		}
 418:/opt/gcc-arm-none-eabi-9-2020-q2/arm-none-eabi/include/c++/9.3.1/bits/list.tcc **** 	      else
 419:/opt/gcc-arm-none-eabi-9-2020-q2/arm-none-eabi/include/c++/9.3.1/bits/list.tcc **** 		++__first1;
 420:/opt/gcc-arm-none-eabi-9-2020-q2/arm-none-eabi/include/c++/9.3.1/bits/list.tcc **** 	    if (__first2 != __last2)
 421:/opt/gcc-arm-none-eabi-9-2020-q2/arm-none-eabi/include/c++/9.3.1/bits/list.tcc **** 	      _M_transfer(__last1, __first2, __last2);
 422:/opt/gcc-arm-none-eabi-9-2020-q2/arm-none-eabi/include/c++/9.3.1/bits/list.tcc **** 
 423:/opt/gcc-arm-none-eabi-9-2020-q2/arm-none-eabi/include/c++/9.3.1/bits/list.tcc **** 	    this->_M_inc_size(__x._M_get_size());
 424:/opt/gcc-arm-none-eabi-9-2020-q2/arm-none-eabi/include/c++/9.3.1/bits/list.tcc **** 	    __x._M_set_size(0);
 425:/opt/gcc-arm-none-eabi-9-2020-q2/arm-none-eabi/include/c++/9.3.1/bits/list.tcc **** 	  }
 426:/opt/gcc-arm-none-eabi-9-2020-q2/arm-none-eabi/include/c++/9.3.1/bits/list.tcc **** 	  __catch(...)
 427:/opt/gcc-arm-none-eabi-9-2020-q2/arm-none-eabi/include/c++/9.3.1/bits/list.tcc **** 	    {
 428:/opt/gcc-arm-none-eabi-9-2020-q2/arm-none-eabi/include/c++/9.3.1/bits/list.tcc **** 	      const size_t __dist = std::distance(__first2, __last2);
 429:/opt/gcc-arm-none-eabi-9-2020-q2/arm-none-eabi/include/c++/9.3.1/bits/list.tcc **** 	      this->_M_inc_size(__orig_size - __dist);
 430:/opt/gcc-arm-none-eabi-9-2020-q2/arm-none-eabi/include/c++/9.3.1/bits/list.tcc **** 	      __x._M_set_size(__dist);
 431:/opt/gcc-arm-none-eabi-9-2020-q2/arm-none-eabi/include/c++/9.3.1/bits/list.tcc **** 	      __throw_exception_again;
 432:/opt/gcc-arm-none-eabi-9-2020-q2/arm-none-eabi/include/c++/9.3.1/bits/list.tcc **** 	    }
 433:/opt/gcc-arm-none-eabi-9-2020-q2/arm-none-eabi/include/c++/9.3.1/bits/list.tcc **** 	}
 434:/opt/gcc-arm-none-eabi-9-2020-q2/arm-none-eabi/include/c++/9.3.1/bits/list.tcc ****     }
 435:/opt/gcc-arm-none-eabi-9-2020-q2/arm-none-eabi/include/c++/9.3.1/bits/list.tcc **** 
 436:/opt/gcc-arm-none-eabi-9-2020-q2/arm-none-eabi/include/c++/9.3.1/bits/list.tcc ****   template<typename _Tp, typename _Alloc>
 437:/opt/gcc-arm-none-eabi-9-2020-q2/arm-none-eabi/include/c++/9.3.1/bits/list.tcc ****     template <typename _StrictWeakOrdering>
 438:/opt/gcc-arm-none-eabi-9-2020-q2/arm-none-eabi/include/c++/9.3.1/bits/list.tcc ****       void
 439:/opt/gcc-arm-none-eabi-9-2020-q2/arm-none-eabi/include/c++/9.3.1/bits/list.tcc ****       list<_Tp, _Alloc>::
 210              		.loc 2 439 7 is_stmt 1 view -0
 211              		.cfi_startproc
 212              		@ args = 0, pretend = 0, frame = 0
 213              		@ frame_needed = 0, uses_anonymous_args = 0
 214              	.LBB842:
 440:/opt/gcc-arm-none-eabi-9-2020-q2/arm-none-eabi/include/c++/9.3.1/bits/list.tcc **** #if __cplusplus >= 201103L
 441:/opt/gcc-arm-none-eabi-9-2020-q2/arm-none-eabi/include/c++/9.3.1/bits/list.tcc ****       merge(list&& __x, _StrictWeakOrdering __comp)
 442:/opt/gcc-arm-none-eabi-9-2020-q2/arm-none-eabi/include/c++/9.3.1/bits/list.tcc **** #else
 443:/opt/gcc-arm-none-eabi-9-2020-q2/arm-none-eabi/include/c++/9.3.1/bits/list.tcc ****       merge(list& __x, _StrictWeakOrdering __comp)
 444:/opt/gcc-arm-none-eabi-9-2020-q2/arm-none-eabi/include/c++/9.3.1/bits/list.tcc **** #endif
 445:/opt/gcc-arm-none-eabi-9-2020-q2/arm-none-eabi/include/c++/9.3.1/bits/list.tcc ****       {
 446:/opt/gcc-arm-none-eabi-9-2020-q2/arm-none-eabi/include/c++/9.3.1/bits/list.tcc **** 	// _GLIBCXX_RESOLVE_LIB_DEFECTS
 447:/opt/gcc-arm-none-eabi-9-2020-q2/arm-none-eabi/include/c++/9.3.1/bits/list.tcc **** 	// 300. list::merge() specification incomplete
 448:/opt/gcc-arm-none-eabi-9-2020-q2/arm-none-eabi/include/c++/9.3.1/bits/list.tcc **** 	if (this != std::__addressof(__x))
 215              		.loc 2 448 2 is_stmt 0 view .LVU32
 216 0000 8142     		cmp	r1, r0
 217 0002 3DD0     		beq	.L25
 218              	.LBE842:
ARM GAS  /tmp/ccQ3xVGk.s 			page 14


 439:/opt/gcc-arm-none-eabi-9-2020-q2/arm-none-eabi/include/c++/9.3.1/bits/list.tcc **** #if __cplusplus >= 201103L
 219              		.loc 2 439 7 view .LVU33
 220 0004 2DE9F843 		push	{r3, r4, r5, r6, r7, r8, r9, lr}
 221              	.LCFI2:
 222              		.cfi_def_cfa_offset 32
 223              		.cfi_offset 3, -32
 224              		.cfi_offset 4, -28
 225              		.cfi_offset 5, -24
 226              		.cfi_offset 6, -20
 227              		.cfi_offset 7, -16
 228              		.cfi_offset 8, -12
 229              		.cfi_offset 9, -8
 230              		.cfi_offset 14, -4
 231 0008 0746     		mov	r7, r0
 232 000a 0D46     		mov	r5, r1
 233              	.LVL14:
 234              	.LBB891:
 235              	.LBB843:
 236              	.LBB844:
 237              	.LBI844:
 238              		.file 3 "/opt/gcc-arm-none-eabi-9-2020-q2/arm-none-eabi/include/c++/9.3.1/bits/stl_list.h"
   1:/opt/gcc-arm-none-eabi-9-2020-q2/arm-none-eabi/include/c++/9.3.1/bits/stl_list.h **** // List implementation -*- C++ -*-
   2:/opt/gcc-arm-none-eabi-9-2020-q2/arm-none-eabi/include/c++/9.3.1/bits/stl_list.h **** 
   3:/opt/gcc-arm-none-eabi-9-2020-q2/arm-none-eabi/include/c++/9.3.1/bits/stl_list.h **** // Copyright (C) 2001-2019 Free Software Foundation, Inc.
   4:/opt/gcc-arm-none-eabi-9-2020-q2/arm-none-eabi/include/c++/9.3.1/bits/stl_list.h **** //
   5:/opt/gcc-arm-none-eabi-9-2020-q2/arm-none-eabi/include/c++/9.3.1/bits/stl_list.h **** // This file is part of the GNU ISO C++ Library.  This library is free
   6:/opt/gcc-arm-none-eabi-9-2020-q2/arm-none-eabi/include/c++/9.3.1/bits/stl_list.h **** // software; you can redistribute it and/or modify it under the
   7:/opt/gcc-arm-none-eabi-9-2020-q2/arm-none-eabi/include/c++/9.3.1/bits/stl_list.h **** // terms of the GNU General Public License as published by the
   8:/opt/gcc-arm-none-eabi-9-2020-q2/arm-none-eabi/include/c++/9.3.1/bits/stl_list.h **** // Free Software Foundation; either version 3, or (at your option)
   9:/opt/gcc-arm-none-eabi-9-2020-q2/arm-none-eabi/include/c++/9.3.1/bits/stl_list.h **** // any later version.
  10:/opt/gcc-arm-none-eabi-9-2020-q2/arm-none-eabi/include/c++/9.3.1/bits/stl_list.h **** 
  11:/opt/gcc-arm-none-eabi-9-2020-q2/arm-none-eabi/include/c++/9.3.1/bits/stl_list.h **** // This library is distributed in the hope that it will be useful,
  12:/opt/gcc-arm-none-eabi-9-2020-q2/arm-none-eabi/include/c++/9.3.1/bits/stl_list.h **** // but WITHOUT ANY WARRANTY; without even the implied warranty of
  13:/opt/gcc-arm-none-eabi-9-2020-q2/arm-none-eabi/include/c++/9.3.1/bits/stl_list.h **** // MERCHANTABILITY or FITNESS FOR A PARTICULAR PURPOSE.  See the
  14:/opt/gcc-arm-none-eabi-9-2020-q2/arm-none-eabi/include/c++/9.3.1/bits/stl_list.h **** // GNU General Public License for more details.
  15:/opt/gcc-arm-none-eabi-9-2020-q2/arm-none-eabi/include/c++/9.3.1/bits/stl_list.h **** 
  16:/opt/gcc-arm-none-eabi-9-2020-q2/arm-none-eabi/include/c++/9.3.1/bits/stl_list.h **** // Under Section 7 of GPL version 3, you are granted additional
  17:/opt/gcc-arm-none-eabi-9-2020-q2/arm-none-eabi/include/c++/9.3.1/bits/stl_list.h **** // permissions described in the GCC Runtime Library Exception, version
  18:/opt/gcc-arm-none-eabi-9-2020-q2/arm-none-eabi/include/c++/9.3.1/bits/stl_list.h **** // 3.1, as published by the Free Software Foundation.
  19:/opt/gcc-arm-none-eabi-9-2020-q2/arm-none-eabi/include/c++/9.3.1/bits/stl_list.h **** 
  20:/opt/gcc-arm-none-eabi-9-2020-q2/arm-none-eabi/include/c++/9.3.1/bits/stl_list.h **** // You should have received a copy of the GNU General Public License and
  21:/opt/gcc-arm-none-eabi-9-2020-q2/arm-none-eabi/include/c++/9.3.1/bits/stl_list.h **** // a copy of the GCC Runtime Library Exception along with this program;
  22:/opt/gcc-arm-none-eabi-9-2020-q2/arm-none-eabi/include/c++/9.3.1/bits/stl_list.h **** // see the files COPYING3 and COPYING.RUNTIME respectively.  If not, see
  23:/opt/gcc-arm-none-eabi-9-2020-q2/arm-none-eabi/include/c++/9.3.1/bits/stl_list.h **** // <http://www.gnu.org/licenses/>.
  24:/opt/gcc-arm-none-eabi-9-2020-q2/arm-none-eabi/include/c++/9.3.1/bits/stl_list.h **** 
  25:/opt/gcc-arm-none-eabi-9-2020-q2/arm-none-eabi/include/c++/9.3.1/bits/stl_list.h **** /*
  26:/opt/gcc-arm-none-eabi-9-2020-q2/arm-none-eabi/include/c++/9.3.1/bits/stl_list.h ****  *
  27:/opt/gcc-arm-none-eabi-9-2020-q2/arm-none-eabi/include/c++/9.3.1/bits/stl_list.h ****  * Copyright (c) 1994
  28:/opt/gcc-arm-none-eabi-9-2020-q2/arm-none-eabi/include/c++/9.3.1/bits/stl_list.h ****  * Hewlett-Packard Company
  29:/opt/gcc-arm-none-eabi-9-2020-q2/arm-none-eabi/include/c++/9.3.1/bits/stl_list.h ****  *
  30:/opt/gcc-arm-none-eabi-9-2020-q2/arm-none-eabi/include/c++/9.3.1/bits/stl_list.h ****  * Permission to use, copy, modify, distribute and sell this software
  31:/opt/gcc-arm-none-eabi-9-2020-q2/arm-none-eabi/include/c++/9.3.1/bits/stl_list.h ****  * and its documentation for any purpose is hereby granted without fee,
  32:/opt/gcc-arm-none-eabi-9-2020-q2/arm-none-eabi/include/c++/9.3.1/bits/stl_list.h ****  * provided that the above copyright notice appear in all copies and
  33:/opt/gcc-arm-none-eabi-9-2020-q2/arm-none-eabi/include/c++/9.3.1/bits/stl_list.h ****  * that both that copyright notice and this permission notice appear
  34:/opt/gcc-arm-none-eabi-9-2020-q2/arm-none-eabi/include/c++/9.3.1/bits/stl_list.h ****  * in supporting documentation.  Hewlett-Packard Company makes no
  35:/opt/gcc-arm-none-eabi-9-2020-q2/arm-none-eabi/include/c++/9.3.1/bits/stl_list.h ****  * representations about the suitability of this software for any
  36:/opt/gcc-arm-none-eabi-9-2020-q2/arm-none-eabi/include/c++/9.3.1/bits/stl_list.h ****  * purpose.  It is provided "as is" without express or implied warranty.
ARM GAS  /tmp/ccQ3xVGk.s 			page 15


  37:/opt/gcc-arm-none-eabi-9-2020-q2/arm-none-eabi/include/c++/9.3.1/bits/stl_list.h ****  *
  38:/opt/gcc-arm-none-eabi-9-2020-q2/arm-none-eabi/include/c++/9.3.1/bits/stl_list.h ****  *
  39:/opt/gcc-arm-none-eabi-9-2020-q2/arm-none-eabi/include/c++/9.3.1/bits/stl_list.h ****  * Copyright (c) 1996,1997
  40:/opt/gcc-arm-none-eabi-9-2020-q2/arm-none-eabi/include/c++/9.3.1/bits/stl_list.h ****  * Silicon Graphics Computer Systems, Inc.
  41:/opt/gcc-arm-none-eabi-9-2020-q2/arm-none-eabi/include/c++/9.3.1/bits/stl_list.h ****  *
  42:/opt/gcc-arm-none-eabi-9-2020-q2/arm-none-eabi/include/c++/9.3.1/bits/stl_list.h ****  * Permission to use, copy, modify, distribute and sell this software
  43:/opt/gcc-arm-none-eabi-9-2020-q2/arm-none-eabi/include/c++/9.3.1/bits/stl_list.h ****  * and its documentation for any purpose is hereby granted without fee,
  44:/opt/gcc-arm-none-eabi-9-2020-q2/arm-none-eabi/include/c++/9.3.1/bits/stl_list.h ****  * provided that the above copyright notice appear in all copies and
  45:/opt/gcc-arm-none-eabi-9-2020-q2/arm-none-eabi/include/c++/9.3.1/bits/stl_list.h ****  * that both that copyright notice and this permission notice appear
  46:/opt/gcc-arm-none-eabi-9-2020-q2/arm-none-eabi/include/c++/9.3.1/bits/stl_list.h ****  * in supporting documentation.  Silicon Graphics makes no
  47:/opt/gcc-arm-none-eabi-9-2020-q2/arm-none-eabi/include/c++/9.3.1/bits/stl_list.h ****  * representations about the suitability of this software for any
  48:/opt/gcc-arm-none-eabi-9-2020-q2/arm-none-eabi/include/c++/9.3.1/bits/stl_list.h ****  * purpose.  It is provided "as is" without express or implied warranty.
  49:/opt/gcc-arm-none-eabi-9-2020-q2/arm-none-eabi/include/c++/9.3.1/bits/stl_list.h ****  */
  50:/opt/gcc-arm-none-eabi-9-2020-q2/arm-none-eabi/include/c++/9.3.1/bits/stl_list.h **** 
  51:/opt/gcc-arm-none-eabi-9-2020-q2/arm-none-eabi/include/c++/9.3.1/bits/stl_list.h **** /** @file bits/stl_list.h
  52:/opt/gcc-arm-none-eabi-9-2020-q2/arm-none-eabi/include/c++/9.3.1/bits/stl_list.h ****  *  This is an internal header file, included by other library headers.
  53:/opt/gcc-arm-none-eabi-9-2020-q2/arm-none-eabi/include/c++/9.3.1/bits/stl_list.h ****  *  Do not attempt to use it directly. @headername{list}
  54:/opt/gcc-arm-none-eabi-9-2020-q2/arm-none-eabi/include/c++/9.3.1/bits/stl_list.h ****  */
  55:/opt/gcc-arm-none-eabi-9-2020-q2/arm-none-eabi/include/c++/9.3.1/bits/stl_list.h **** 
  56:/opt/gcc-arm-none-eabi-9-2020-q2/arm-none-eabi/include/c++/9.3.1/bits/stl_list.h **** #ifndef _STL_LIST_H
  57:/opt/gcc-arm-none-eabi-9-2020-q2/arm-none-eabi/include/c++/9.3.1/bits/stl_list.h **** #define _STL_LIST_H 1
  58:/opt/gcc-arm-none-eabi-9-2020-q2/arm-none-eabi/include/c++/9.3.1/bits/stl_list.h **** 
  59:/opt/gcc-arm-none-eabi-9-2020-q2/arm-none-eabi/include/c++/9.3.1/bits/stl_list.h **** #include <bits/concept_check.h>
  60:/opt/gcc-arm-none-eabi-9-2020-q2/arm-none-eabi/include/c++/9.3.1/bits/stl_list.h **** #include <ext/alloc_traits.h>
  61:/opt/gcc-arm-none-eabi-9-2020-q2/arm-none-eabi/include/c++/9.3.1/bits/stl_list.h **** #if __cplusplus >= 201103L
  62:/opt/gcc-arm-none-eabi-9-2020-q2/arm-none-eabi/include/c++/9.3.1/bits/stl_list.h **** #include <initializer_list>
  63:/opt/gcc-arm-none-eabi-9-2020-q2/arm-none-eabi/include/c++/9.3.1/bits/stl_list.h **** #include <bits/allocated_ptr.h>
  64:/opt/gcc-arm-none-eabi-9-2020-q2/arm-none-eabi/include/c++/9.3.1/bits/stl_list.h **** #include <ext/aligned_buffer.h>
  65:/opt/gcc-arm-none-eabi-9-2020-q2/arm-none-eabi/include/c++/9.3.1/bits/stl_list.h **** #endif
  66:/opt/gcc-arm-none-eabi-9-2020-q2/arm-none-eabi/include/c++/9.3.1/bits/stl_list.h **** 
  67:/opt/gcc-arm-none-eabi-9-2020-q2/arm-none-eabi/include/c++/9.3.1/bits/stl_list.h **** namespace std _GLIBCXX_VISIBILITY(default)
  68:/opt/gcc-arm-none-eabi-9-2020-q2/arm-none-eabi/include/c++/9.3.1/bits/stl_list.h **** {
  69:/opt/gcc-arm-none-eabi-9-2020-q2/arm-none-eabi/include/c++/9.3.1/bits/stl_list.h **** _GLIBCXX_BEGIN_NAMESPACE_VERSION
  70:/opt/gcc-arm-none-eabi-9-2020-q2/arm-none-eabi/include/c++/9.3.1/bits/stl_list.h **** 
  71:/opt/gcc-arm-none-eabi-9-2020-q2/arm-none-eabi/include/c++/9.3.1/bits/stl_list.h ****   namespace __detail
  72:/opt/gcc-arm-none-eabi-9-2020-q2/arm-none-eabi/include/c++/9.3.1/bits/stl_list.h ****   {
  73:/opt/gcc-arm-none-eabi-9-2020-q2/arm-none-eabi/include/c++/9.3.1/bits/stl_list.h ****     // Supporting structures are split into common and templated
  74:/opt/gcc-arm-none-eabi-9-2020-q2/arm-none-eabi/include/c++/9.3.1/bits/stl_list.h ****     // types; the latter publicly inherits from the former in an
  75:/opt/gcc-arm-none-eabi-9-2020-q2/arm-none-eabi/include/c++/9.3.1/bits/stl_list.h ****     // effort to reduce code duplication.  This results in some
  76:/opt/gcc-arm-none-eabi-9-2020-q2/arm-none-eabi/include/c++/9.3.1/bits/stl_list.h ****     // "needless" static_cast'ing later on, but it's all safe
  77:/opt/gcc-arm-none-eabi-9-2020-q2/arm-none-eabi/include/c++/9.3.1/bits/stl_list.h ****     // downcasting.
  78:/opt/gcc-arm-none-eabi-9-2020-q2/arm-none-eabi/include/c++/9.3.1/bits/stl_list.h **** 
  79:/opt/gcc-arm-none-eabi-9-2020-q2/arm-none-eabi/include/c++/9.3.1/bits/stl_list.h ****     /// Common part of a node in the %list.
  80:/opt/gcc-arm-none-eabi-9-2020-q2/arm-none-eabi/include/c++/9.3.1/bits/stl_list.h ****     struct _List_node_base
  81:/opt/gcc-arm-none-eabi-9-2020-q2/arm-none-eabi/include/c++/9.3.1/bits/stl_list.h ****     {
  82:/opt/gcc-arm-none-eabi-9-2020-q2/arm-none-eabi/include/c++/9.3.1/bits/stl_list.h ****       _List_node_base* _M_next;
  83:/opt/gcc-arm-none-eabi-9-2020-q2/arm-none-eabi/include/c++/9.3.1/bits/stl_list.h ****       _List_node_base* _M_prev;
  84:/opt/gcc-arm-none-eabi-9-2020-q2/arm-none-eabi/include/c++/9.3.1/bits/stl_list.h **** 
  85:/opt/gcc-arm-none-eabi-9-2020-q2/arm-none-eabi/include/c++/9.3.1/bits/stl_list.h ****       static void
  86:/opt/gcc-arm-none-eabi-9-2020-q2/arm-none-eabi/include/c++/9.3.1/bits/stl_list.h ****       swap(_List_node_base& __x, _List_node_base& __y) _GLIBCXX_USE_NOEXCEPT;
  87:/opt/gcc-arm-none-eabi-9-2020-q2/arm-none-eabi/include/c++/9.3.1/bits/stl_list.h **** 
  88:/opt/gcc-arm-none-eabi-9-2020-q2/arm-none-eabi/include/c++/9.3.1/bits/stl_list.h ****       void
  89:/opt/gcc-arm-none-eabi-9-2020-q2/arm-none-eabi/include/c++/9.3.1/bits/stl_list.h ****       _M_transfer(_List_node_base* const __first,
  90:/opt/gcc-arm-none-eabi-9-2020-q2/arm-none-eabi/include/c++/9.3.1/bits/stl_list.h **** 		  _List_node_base* const __last) _GLIBCXX_USE_NOEXCEPT;
  91:/opt/gcc-arm-none-eabi-9-2020-q2/arm-none-eabi/include/c++/9.3.1/bits/stl_list.h **** 
  92:/opt/gcc-arm-none-eabi-9-2020-q2/arm-none-eabi/include/c++/9.3.1/bits/stl_list.h ****       void
  93:/opt/gcc-arm-none-eabi-9-2020-q2/arm-none-eabi/include/c++/9.3.1/bits/stl_list.h ****       _M_reverse() _GLIBCXX_USE_NOEXCEPT;
ARM GAS  /tmp/ccQ3xVGk.s 			page 16


  94:/opt/gcc-arm-none-eabi-9-2020-q2/arm-none-eabi/include/c++/9.3.1/bits/stl_list.h **** 
  95:/opt/gcc-arm-none-eabi-9-2020-q2/arm-none-eabi/include/c++/9.3.1/bits/stl_list.h ****       void
  96:/opt/gcc-arm-none-eabi-9-2020-q2/arm-none-eabi/include/c++/9.3.1/bits/stl_list.h ****       _M_hook(_List_node_base* const __position) _GLIBCXX_USE_NOEXCEPT;
  97:/opt/gcc-arm-none-eabi-9-2020-q2/arm-none-eabi/include/c++/9.3.1/bits/stl_list.h **** 
  98:/opt/gcc-arm-none-eabi-9-2020-q2/arm-none-eabi/include/c++/9.3.1/bits/stl_list.h ****       void
  99:/opt/gcc-arm-none-eabi-9-2020-q2/arm-none-eabi/include/c++/9.3.1/bits/stl_list.h ****       _M_unhook() _GLIBCXX_USE_NOEXCEPT;
 100:/opt/gcc-arm-none-eabi-9-2020-q2/arm-none-eabi/include/c++/9.3.1/bits/stl_list.h ****     };
 101:/opt/gcc-arm-none-eabi-9-2020-q2/arm-none-eabi/include/c++/9.3.1/bits/stl_list.h **** 
 102:/opt/gcc-arm-none-eabi-9-2020-q2/arm-none-eabi/include/c++/9.3.1/bits/stl_list.h ****     /// The %list node header.
 103:/opt/gcc-arm-none-eabi-9-2020-q2/arm-none-eabi/include/c++/9.3.1/bits/stl_list.h ****     struct _List_node_header : public _List_node_base
 104:/opt/gcc-arm-none-eabi-9-2020-q2/arm-none-eabi/include/c++/9.3.1/bits/stl_list.h ****     {
 105:/opt/gcc-arm-none-eabi-9-2020-q2/arm-none-eabi/include/c++/9.3.1/bits/stl_list.h **** #if _GLIBCXX_USE_CXX11_ABI
 106:/opt/gcc-arm-none-eabi-9-2020-q2/arm-none-eabi/include/c++/9.3.1/bits/stl_list.h ****       std::size_t _M_size;
 107:/opt/gcc-arm-none-eabi-9-2020-q2/arm-none-eabi/include/c++/9.3.1/bits/stl_list.h **** #endif
 108:/opt/gcc-arm-none-eabi-9-2020-q2/arm-none-eabi/include/c++/9.3.1/bits/stl_list.h **** 
 109:/opt/gcc-arm-none-eabi-9-2020-q2/arm-none-eabi/include/c++/9.3.1/bits/stl_list.h ****       _List_node_header() _GLIBCXX_NOEXCEPT
 110:/opt/gcc-arm-none-eabi-9-2020-q2/arm-none-eabi/include/c++/9.3.1/bits/stl_list.h ****       { _M_init(); }
 111:/opt/gcc-arm-none-eabi-9-2020-q2/arm-none-eabi/include/c++/9.3.1/bits/stl_list.h **** 
 112:/opt/gcc-arm-none-eabi-9-2020-q2/arm-none-eabi/include/c++/9.3.1/bits/stl_list.h **** #if __cplusplus >= 201103L
 113:/opt/gcc-arm-none-eabi-9-2020-q2/arm-none-eabi/include/c++/9.3.1/bits/stl_list.h ****       _List_node_header(_List_node_header&& __x) noexcept
 114:/opt/gcc-arm-none-eabi-9-2020-q2/arm-none-eabi/include/c++/9.3.1/bits/stl_list.h ****       : _List_node_base{ __x._M_next, __x._M_prev }
 115:/opt/gcc-arm-none-eabi-9-2020-q2/arm-none-eabi/include/c++/9.3.1/bits/stl_list.h **** # if _GLIBCXX_USE_CXX11_ABI
 116:/opt/gcc-arm-none-eabi-9-2020-q2/arm-none-eabi/include/c++/9.3.1/bits/stl_list.h ****       , _M_size(__x._M_size)
 117:/opt/gcc-arm-none-eabi-9-2020-q2/arm-none-eabi/include/c++/9.3.1/bits/stl_list.h **** # endif
 118:/opt/gcc-arm-none-eabi-9-2020-q2/arm-none-eabi/include/c++/9.3.1/bits/stl_list.h ****       {
 119:/opt/gcc-arm-none-eabi-9-2020-q2/arm-none-eabi/include/c++/9.3.1/bits/stl_list.h **** 	if (__x._M_base()->_M_next == __x._M_base())
 120:/opt/gcc-arm-none-eabi-9-2020-q2/arm-none-eabi/include/c++/9.3.1/bits/stl_list.h **** 	  this->_M_next = this->_M_prev = this;
 121:/opt/gcc-arm-none-eabi-9-2020-q2/arm-none-eabi/include/c++/9.3.1/bits/stl_list.h **** 	else
 122:/opt/gcc-arm-none-eabi-9-2020-q2/arm-none-eabi/include/c++/9.3.1/bits/stl_list.h **** 	  {
 123:/opt/gcc-arm-none-eabi-9-2020-q2/arm-none-eabi/include/c++/9.3.1/bits/stl_list.h **** 	    this->_M_next->_M_prev = this->_M_prev->_M_next = this->_M_base();
 124:/opt/gcc-arm-none-eabi-9-2020-q2/arm-none-eabi/include/c++/9.3.1/bits/stl_list.h **** 	    __x._M_init();
 125:/opt/gcc-arm-none-eabi-9-2020-q2/arm-none-eabi/include/c++/9.3.1/bits/stl_list.h **** 	  }
 126:/opt/gcc-arm-none-eabi-9-2020-q2/arm-none-eabi/include/c++/9.3.1/bits/stl_list.h ****       }
 127:/opt/gcc-arm-none-eabi-9-2020-q2/arm-none-eabi/include/c++/9.3.1/bits/stl_list.h **** 
 128:/opt/gcc-arm-none-eabi-9-2020-q2/arm-none-eabi/include/c++/9.3.1/bits/stl_list.h ****       void
 129:/opt/gcc-arm-none-eabi-9-2020-q2/arm-none-eabi/include/c++/9.3.1/bits/stl_list.h ****       _M_move_nodes(_List_node_header&& __x)
 130:/opt/gcc-arm-none-eabi-9-2020-q2/arm-none-eabi/include/c++/9.3.1/bits/stl_list.h ****       {
 131:/opt/gcc-arm-none-eabi-9-2020-q2/arm-none-eabi/include/c++/9.3.1/bits/stl_list.h **** 	_List_node_base* const __xnode = __x._M_base();
 132:/opt/gcc-arm-none-eabi-9-2020-q2/arm-none-eabi/include/c++/9.3.1/bits/stl_list.h **** 	if (__xnode->_M_next == __xnode)
 133:/opt/gcc-arm-none-eabi-9-2020-q2/arm-none-eabi/include/c++/9.3.1/bits/stl_list.h **** 	  _M_init();
 134:/opt/gcc-arm-none-eabi-9-2020-q2/arm-none-eabi/include/c++/9.3.1/bits/stl_list.h **** 	else
 135:/opt/gcc-arm-none-eabi-9-2020-q2/arm-none-eabi/include/c++/9.3.1/bits/stl_list.h **** 	  {
 136:/opt/gcc-arm-none-eabi-9-2020-q2/arm-none-eabi/include/c++/9.3.1/bits/stl_list.h **** 	    _List_node_base* const __node = this->_M_base();
 137:/opt/gcc-arm-none-eabi-9-2020-q2/arm-none-eabi/include/c++/9.3.1/bits/stl_list.h **** 	    __node->_M_next = __xnode->_M_next;
 138:/opt/gcc-arm-none-eabi-9-2020-q2/arm-none-eabi/include/c++/9.3.1/bits/stl_list.h **** 	    __node->_M_prev = __xnode->_M_prev;
 139:/opt/gcc-arm-none-eabi-9-2020-q2/arm-none-eabi/include/c++/9.3.1/bits/stl_list.h **** 	    __node->_M_next->_M_prev = __node->_M_prev->_M_next = __node;
 140:/opt/gcc-arm-none-eabi-9-2020-q2/arm-none-eabi/include/c++/9.3.1/bits/stl_list.h **** # if _GLIBCXX_USE_CXX11_ABI
 141:/opt/gcc-arm-none-eabi-9-2020-q2/arm-none-eabi/include/c++/9.3.1/bits/stl_list.h **** 	    _M_size = __x._M_size;
 142:/opt/gcc-arm-none-eabi-9-2020-q2/arm-none-eabi/include/c++/9.3.1/bits/stl_list.h **** # endif
 143:/opt/gcc-arm-none-eabi-9-2020-q2/arm-none-eabi/include/c++/9.3.1/bits/stl_list.h **** 	    __x._M_init();
 144:/opt/gcc-arm-none-eabi-9-2020-q2/arm-none-eabi/include/c++/9.3.1/bits/stl_list.h **** 	  }
 145:/opt/gcc-arm-none-eabi-9-2020-q2/arm-none-eabi/include/c++/9.3.1/bits/stl_list.h ****       }
 146:/opt/gcc-arm-none-eabi-9-2020-q2/arm-none-eabi/include/c++/9.3.1/bits/stl_list.h **** #endif
 147:/opt/gcc-arm-none-eabi-9-2020-q2/arm-none-eabi/include/c++/9.3.1/bits/stl_list.h **** 
 148:/opt/gcc-arm-none-eabi-9-2020-q2/arm-none-eabi/include/c++/9.3.1/bits/stl_list.h ****       void
 149:/opt/gcc-arm-none-eabi-9-2020-q2/arm-none-eabi/include/c++/9.3.1/bits/stl_list.h ****       _M_init() _GLIBCXX_NOEXCEPT
 150:/opt/gcc-arm-none-eabi-9-2020-q2/arm-none-eabi/include/c++/9.3.1/bits/stl_list.h ****       {
ARM GAS  /tmp/ccQ3xVGk.s 			page 17


 151:/opt/gcc-arm-none-eabi-9-2020-q2/arm-none-eabi/include/c++/9.3.1/bits/stl_list.h **** 	this->_M_next = this->_M_prev = this;
 152:/opt/gcc-arm-none-eabi-9-2020-q2/arm-none-eabi/include/c++/9.3.1/bits/stl_list.h **** #if _GLIBCXX_USE_CXX11_ABI
 153:/opt/gcc-arm-none-eabi-9-2020-q2/arm-none-eabi/include/c++/9.3.1/bits/stl_list.h **** 	this->_M_size = 0;
 154:/opt/gcc-arm-none-eabi-9-2020-q2/arm-none-eabi/include/c++/9.3.1/bits/stl_list.h **** #endif
 155:/opt/gcc-arm-none-eabi-9-2020-q2/arm-none-eabi/include/c++/9.3.1/bits/stl_list.h ****       }
 156:/opt/gcc-arm-none-eabi-9-2020-q2/arm-none-eabi/include/c++/9.3.1/bits/stl_list.h **** 
 157:/opt/gcc-arm-none-eabi-9-2020-q2/arm-none-eabi/include/c++/9.3.1/bits/stl_list.h ****     private:
 158:/opt/gcc-arm-none-eabi-9-2020-q2/arm-none-eabi/include/c++/9.3.1/bits/stl_list.h ****       _List_node_base* _M_base() { return this; }
 159:/opt/gcc-arm-none-eabi-9-2020-q2/arm-none-eabi/include/c++/9.3.1/bits/stl_list.h ****     };
 160:/opt/gcc-arm-none-eabi-9-2020-q2/arm-none-eabi/include/c++/9.3.1/bits/stl_list.h ****   } // namespace detail
 161:/opt/gcc-arm-none-eabi-9-2020-q2/arm-none-eabi/include/c++/9.3.1/bits/stl_list.h **** 
 162:/opt/gcc-arm-none-eabi-9-2020-q2/arm-none-eabi/include/c++/9.3.1/bits/stl_list.h **** _GLIBCXX_BEGIN_NAMESPACE_CONTAINER
 163:/opt/gcc-arm-none-eabi-9-2020-q2/arm-none-eabi/include/c++/9.3.1/bits/stl_list.h **** 
 164:/opt/gcc-arm-none-eabi-9-2020-q2/arm-none-eabi/include/c++/9.3.1/bits/stl_list.h ****   /// An actual node in the %list.
 165:/opt/gcc-arm-none-eabi-9-2020-q2/arm-none-eabi/include/c++/9.3.1/bits/stl_list.h ****   template<typename _Tp>
 166:/opt/gcc-arm-none-eabi-9-2020-q2/arm-none-eabi/include/c++/9.3.1/bits/stl_list.h ****     struct _List_node : public __detail::_List_node_base
 167:/opt/gcc-arm-none-eabi-9-2020-q2/arm-none-eabi/include/c++/9.3.1/bits/stl_list.h ****     {
 168:/opt/gcc-arm-none-eabi-9-2020-q2/arm-none-eabi/include/c++/9.3.1/bits/stl_list.h **** #if __cplusplus >= 201103L
 169:/opt/gcc-arm-none-eabi-9-2020-q2/arm-none-eabi/include/c++/9.3.1/bits/stl_list.h ****       __gnu_cxx::__aligned_membuf<_Tp> _M_storage;
 170:/opt/gcc-arm-none-eabi-9-2020-q2/arm-none-eabi/include/c++/9.3.1/bits/stl_list.h ****       _Tp*       _M_valptr()       { return _M_storage._M_ptr(); }
 171:/opt/gcc-arm-none-eabi-9-2020-q2/arm-none-eabi/include/c++/9.3.1/bits/stl_list.h ****       _Tp const* _M_valptr() const { return _M_storage._M_ptr(); }
 172:/opt/gcc-arm-none-eabi-9-2020-q2/arm-none-eabi/include/c++/9.3.1/bits/stl_list.h **** #else
 173:/opt/gcc-arm-none-eabi-9-2020-q2/arm-none-eabi/include/c++/9.3.1/bits/stl_list.h ****       _Tp _M_data;
 174:/opt/gcc-arm-none-eabi-9-2020-q2/arm-none-eabi/include/c++/9.3.1/bits/stl_list.h ****       _Tp*       _M_valptr()       { return std::__addressof(_M_data); }
 175:/opt/gcc-arm-none-eabi-9-2020-q2/arm-none-eabi/include/c++/9.3.1/bits/stl_list.h ****       _Tp const* _M_valptr() const { return std::__addressof(_M_data); }
 176:/opt/gcc-arm-none-eabi-9-2020-q2/arm-none-eabi/include/c++/9.3.1/bits/stl_list.h **** #endif
 177:/opt/gcc-arm-none-eabi-9-2020-q2/arm-none-eabi/include/c++/9.3.1/bits/stl_list.h ****     };
 178:/opt/gcc-arm-none-eabi-9-2020-q2/arm-none-eabi/include/c++/9.3.1/bits/stl_list.h **** 
 179:/opt/gcc-arm-none-eabi-9-2020-q2/arm-none-eabi/include/c++/9.3.1/bits/stl_list.h ****   /**
 180:/opt/gcc-arm-none-eabi-9-2020-q2/arm-none-eabi/include/c++/9.3.1/bits/stl_list.h ****    *  @brief A list::iterator.
 181:/opt/gcc-arm-none-eabi-9-2020-q2/arm-none-eabi/include/c++/9.3.1/bits/stl_list.h ****    *
 182:/opt/gcc-arm-none-eabi-9-2020-q2/arm-none-eabi/include/c++/9.3.1/bits/stl_list.h ****    *  All the functions are op overloads.
 183:/opt/gcc-arm-none-eabi-9-2020-q2/arm-none-eabi/include/c++/9.3.1/bits/stl_list.h ****   */
 184:/opt/gcc-arm-none-eabi-9-2020-q2/arm-none-eabi/include/c++/9.3.1/bits/stl_list.h ****   template<typename _Tp>
 185:/opt/gcc-arm-none-eabi-9-2020-q2/arm-none-eabi/include/c++/9.3.1/bits/stl_list.h ****     struct _List_iterator
 186:/opt/gcc-arm-none-eabi-9-2020-q2/arm-none-eabi/include/c++/9.3.1/bits/stl_list.h ****     {
 187:/opt/gcc-arm-none-eabi-9-2020-q2/arm-none-eabi/include/c++/9.3.1/bits/stl_list.h ****       typedef _List_iterator<_Tp>		_Self;
 188:/opt/gcc-arm-none-eabi-9-2020-q2/arm-none-eabi/include/c++/9.3.1/bits/stl_list.h ****       typedef _List_node<_Tp>			_Node;
 189:/opt/gcc-arm-none-eabi-9-2020-q2/arm-none-eabi/include/c++/9.3.1/bits/stl_list.h **** 
 190:/opt/gcc-arm-none-eabi-9-2020-q2/arm-none-eabi/include/c++/9.3.1/bits/stl_list.h ****       typedef ptrdiff_t				difference_type;
 191:/opt/gcc-arm-none-eabi-9-2020-q2/arm-none-eabi/include/c++/9.3.1/bits/stl_list.h ****       typedef std::bidirectional_iterator_tag	iterator_category;
 192:/opt/gcc-arm-none-eabi-9-2020-q2/arm-none-eabi/include/c++/9.3.1/bits/stl_list.h ****       typedef _Tp				value_type;
 193:/opt/gcc-arm-none-eabi-9-2020-q2/arm-none-eabi/include/c++/9.3.1/bits/stl_list.h ****       typedef _Tp*				pointer;
 194:/opt/gcc-arm-none-eabi-9-2020-q2/arm-none-eabi/include/c++/9.3.1/bits/stl_list.h ****       typedef _Tp&				reference;
 195:/opt/gcc-arm-none-eabi-9-2020-q2/arm-none-eabi/include/c++/9.3.1/bits/stl_list.h **** 
 196:/opt/gcc-arm-none-eabi-9-2020-q2/arm-none-eabi/include/c++/9.3.1/bits/stl_list.h ****       _List_iterator() _GLIBCXX_NOEXCEPT
 197:/opt/gcc-arm-none-eabi-9-2020-q2/arm-none-eabi/include/c++/9.3.1/bits/stl_list.h ****       : _M_node() { }
 198:/opt/gcc-arm-none-eabi-9-2020-q2/arm-none-eabi/include/c++/9.3.1/bits/stl_list.h **** 
 199:/opt/gcc-arm-none-eabi-9-2020-q2/arm-none-eabi/include/c++/9.3.1/bits/stl_list.h ****       explicit
 200:/opt/gcc-arm-none-eabi-9-2020-q2/arm-none-eabi/include/c++/9.3.1/bits/stl_list.h ****       _List_iterator(__detail::_List_node_base* __x) _GLIBCXX_NOEXCEPT
 201:/opt/gcc-arm-none-eabi-9-2020-q2/arm-none-eabi/include/c++/9.3.1/bits/stl_list.h ****       : _M_node(__x) { }
 202:/opt/gcc-arm-none-eabi-9-2020-q2/arm-none-eabi/include/c++/9.3.1/bits/stl_list.h **** 
 203:/opt/gcc-arm-none-eabi-9-2020-q2/arm-none-eabi/include/c++/9.3.1/bits/stl_list.h ****       _Self
 204:/opt/gcc-arm-none-eabi-9-2020-q2/arm-none-eabi/include/c++/9.3.1/bits/stl_list.h ****       _M_const_cast() const _GLIBCXX_NOEXCEPT
 205:/opt/gcc-arm-none-eabi-9-2020-q2/arm-none-eabi/include/c++/9.3.1/bits/stl_list.h ****       { return *this; }
 206:/opt/gcc-arm-none-eabi-9-2020-q2/arm-none-eabi/include/c++/9.3.1/bits/stl_list.h **** 
 207:/opt/gcc-arm-none-eabi-9-2020-q2/arm-none-eabi/include/c++/9.3.1/bits/stl_list.h ****       // Must downcast from _List_node_base to _List_node to get to value.
ARM GAS  /tmp/ccQ3xVGk.s 			page 18


 208:/opt/gcc-arm-none-eabi-9-2020-q2/arm-none-eabi/include/c++/9.3.1/bits/stl_list.h ****       reference
 209:/opt/gcc-arm-none-eabi-9-2020-q2/arm-none-eabi/include/c++/9.3.1/bits/stl_list.h ****       operator*() const _GLIBCXX_NOEXCEPT
 210:/opt/gcc-arm-none-eabi-9-2020-q2/arm-none-eabi/include/c++/9.3.1/bits/stl_list.h ****       { return *static_cast<_Node*>(_M_node)->_M_valptr(); }
 211:/opt/gcc-arm-none-eabi-9-2020-q2/arm-none-eabi/include/c++/9.3.1/bits/stl_list.h **** 
 212:/opt/gcc-arm-none-eabi-9-2020-q2/arm-none-eabi/include/c++/9.3.1/bits/stl_list.h ****       pointer
 213:/opt/gcc-arm-none-eabi-9-2020-q2/arm-none-eabi/include/c++/9.3.1/bits/stl_list.h ****       operator->() const _GLIBCXX_NOEXCEPT
 214:/opt/gcc-arm-none-eabi-9-2020-q2/arm-none-eabi/include/c++/9.3.1/bits/stl_list.h ****       { return static_cast<_Node*>(_M_node)->_M_valptr(); }
 215:/opt/gcc-arm-none-eabi-9-2020-q2/arm-none-eabi/include/c++/9.3.1/bits/stl_list.h **** 
 216:/opt/gcc-arm-none-eabi-9-2020-q2/arm-none-eabi/include/c++/9.3.1/bits/stl_list.h ****       _Self&
 217:/opt/gcc-arm-none-eabi-9-2020-q2/arm-none-eabi/include/c++/9.3.1/bits/stl_list.h ****       operator++() _GLIBCXX_NOEXCEPT
 218:/opt/gcc-arm-none-eabi-9-2020-q2/arm-none-eabi/include/c++/9.3.1/bits/stl_list.h ****       {
 219:/opt/gcc-arm-none-eabi-9-2020-q2/arm-none-eabi/include/c++/9.3.1/bits/stl_list.h **** 	_M_node = _M_node->_M_next;
 220:/opt/gcc-arm-none-eabi-9-2020-q2/arm-none-eabi/include/c++/9.3.1/bits/stl_list.h **** 	return *this;
 221:/opt/gcc-arm-none-eabi-9-2020-q2/arm-none-eabi/include/c++/9.3.1/bits/stl_list.h ****       }
 222:/opt/gcc-arm-none-eabi-9-2020-q2/arm-none-eabi/include/c++/9.3.1/bits/stl_list.h **** 
 223:/opt/gcc-arm-none-eabi-9-2020-q2/arm-none-eabi/include/c++/9.3.1/bits/stl_list.h ****       _Self
 224:/opt/gcc-arm-none-eabi-9-2020-q2/arm-none-eabi/include/c++/9.3.1/bits/stl_list.h ****       operator++(int) _GLIBCXX_NOEXCEPT
 225:/opt/gcc-arm-none-eabi-9-2020-q2/arm-none-eabi/include/c++/9.3.1/bits/stl_list.h ****       {
 226:/opt/gcc-arm-none-eabi-9-2020-q2/arm-none-eabi/include/c++/9.3.1/bits/stl_list.h **** 	_Self __tmp = *this;
 227:/opt/gcc-arm-none-eabi-9-2020-q2/arm-none-eabi/include/c++/9.3.1/bits/stl_list.h **** 	_M_node = _M_node->_M_next;
 228:/opt/gcc-arm-none-eabi-9-2020-q2/arm-none-eabi/include/c++/9.3.1/bits/stl_list.h **** 	return __tmp;
 229:/opt/gcc-arm-none-eabi-9-2020-q2/arm-none-eabi/include/c++/9.3.1/bits/stl_list.h ****       }
 230:/opt/gcc-arm-none-eabi-9-2020-q2/arm-none-eabi/include/c++/9.3.1/bits/stl_list.h **** 
 231:/opt/gcc-arm-none-eabi-9-2020-q2/arm-none-eabi/include/c++/9.3.1/bits/stl_list.h ****       _Self&
 232:/opt/gcc-arm-none-eabi-9-2020-q2/arm-none-eabi/include/c++/9.3.1/bits/stl_list.h ****       operator--() _GLIBCXX_NOEXCEPT
 233:/opt/gcc-arm-none-eabi-9-2020-q2/arm-none-eabi/include/c++/9.3.1/bits/stl_list.h ****       {
 234:/opt/gcc-arm-none-eabi-9-2020-q2/arm-none-eabi/include/c++/9.3.1/bits/stl_list.h **** 	_M_node = _M_node->_M_prev;
 235:/opt/gcc-arm-none-eabi-9-2020-q2/arm-none-eabi/include/c++/9.3.1/bits/stl_list.h **** 	return *this;
 236:/opt/gcc-arm-none-eabi-9-2020-q2/arm-none-eabi/include/c++/9.3.1/bits/stl_list.h ****       }
 237:/opt/gcc-arm-none-eabi-9-2020-q2/arm-none-eabi/include/c++/9.3.1/bits/stl_list.h **** 
 238:/opt/gcc-arm-none-eabi-9-2020-q2/arm-none-eabi/include/c++/9.3.1/bits/stl_list.h ****       _Self
 239:/opt/gcc-arm-none-eabi-9-2020-q2/arm-none-eabi/include/c++/9.3.1/bits/stl_list.h ****       operator--(int) _GLIBCXX_NOEXCEPT
 240:/opt/gcc-arm-none-eabi-9-2020-q2/arm-none-eabi/include/c++/9.3.1/bits/stl_list.h ****       {
 241:/opt/gcc-arm-none-eabi-9-2020-q2/arm-none-eabi/include/c++/9.3.1/bits/stl_list.h **** 	_Self __tmp = *this;
 242:/opt/gcc-arm-none-eabi-9-2020-q2/arm-none-eabi/include/c++/9.3.1/bits/stl_list.h **** 	_M_node = _M_node->_M_prev;
 243:/opt/gcc-arm-none-eabi-9-2020-q2/arm-none-eabi/include/c++/9.3.1/bits/stl_list.h **** 	return __tmp;
 244:/opt/gcc-arm-none-eabi-9-2020-q2/arm-none-eabi/include/c++/9.3.1/bits/stl_list.h ****       }
 245:/opt/gcc-arm-none-eabi-9-2020-q2/arm-none-eabi/include/c++/9.3.1/bits/stl_list.h **** 
 246:/opt/gcc-arm-none-eabi-9-2020-q2/arm-none-eabi/include/c++/9.3.1/bits/stl_list.h ****       friend bool
 247:/opt/gcc-arm-none-eabi-9-2020-q2/arm-none-eabi/include/c++/9.3.1/bits/stl_list.h ****       operator==(const _Self& __x, const _Self& __y) _GLIBCXX_NOEXCEPT
 248:/opt/gcc-arm-none-eabi-9-2020-q2/arm-none-eabi/include/c++/9.3.1/bits/stl_list.h ****       { return __x._M_node == __y._M_node; }
 249:/opt/gcc-arm-none-eabi-9-2020-q2/arm-none-eabi/include/c++/9.3.1/bits/stl_list.h **** 
 250:/opt/gcc-arm-none-eabi-9-2020-q2/arm-none-eabi/include/c++/9.3.1/bits/stl_list.h ****       friend bool
 251:/opt/gcc-arm-none-eabi-9-2020-q2/arm-none-eabi/include/c++/9.3.1/bits/stl_list.h ****       operator!=(const _Self& __x, const _Self& __y) _GLIBCXX_NOEXCEPT
 252:/opt/gcc-arm-none-eabi-9-2020-q2/arm-none-eabi/include/c++/9.3.1/bits/stl_list.h ****       { return __x._M_node != __y._M_node; }
 253:/opt/gcc-arm-none-eabi-9-2020-q2/arm-none-eabi/include/c++/9.3.1/bits/stl_list.h **** 
 254:/opt/gcc-arm-none-eabi-9-2020-q2/arm-none-eabi/include/c++/9.3.1/bits/stl_list.h ****       // The only member points to the %list element.
 255:/opt/gcc-arm-none-eabi-9-2020-q2/arm-none-eabi/include/c++/9.3.1/bits/stl_list.h ****       __detail::_List_node_base* _M_node;
 256:/opt/gcc-arm-none-eabi-9-2020-q2/arm-none-eabi/include/c++/9.3.1/bits/stl_list.h ****     };
 257:/opt/gcc-arm-none-eabi-9-2020-q2/arm-none-eabi/include/c++/9.3.1/bits/stl_list.h **** 
 258:/opt/gcc-arm-none-eabi-9-2020-q2/arm-none-eabi/include/c++/9.3.1/bits/stl_list.h ****   /**
 259:/opt/gcc-arm-none-eabi-9-2020-q2/arm-none-eabi/include/c++/9.3.1/bits/stl_list.h ****    *  @brief A list::const_iterator.
 260:/opt/gcc-arm-none-eabi-9-2020-q2/arm-none-eabi/include/c++/9.3.1/bits/stl_list.h ****    *
 261:/opt/gcc-arm-none-eabi-9-2020-q2/arm-none-eabi/include/c++/9.3.1/bits/stl_list.h ****    *  All the functions are op overloads.
 262:/opt/gcc-arm-none-eabi-9-2020-q2/arm-none-eabi/include/c++/9.3.1/bits/stl_list.h ****   */
 263:/opt/gcc-arm-none-eabi-9-2020-q2/arm-none-eabi/include/c++/9.3.1/bits/stl_list.h ****   template<typename _Tp>
 264:/opt/gcc-arm-none-eabi-9-2020-q2/arm-none-eabi/include/c++/9.3.1/bits/stl_list.h ****     struct _List_const_iterator
ARM GAS  /tmp/ccQ3xVGk.s 			page 19


 265:/opt/gcc-arm-none-eabi-9-2020-q2/arm-none-eabi/include/c++/9.3.1/bits/stl_list.h ****     {
 266:/opt/gcc-arm-none-eabi-9-2020-q2/arm-none-eabi/include/c++/9.3.1/bits/stl_list.h ****       typedef _List_const_iterator<_Tp>		_Self;
 267:/opt/gcc-arm-none-eabi-9-2020-q2/arm-none-eabi/include/c++/9.3.1/bits/stl_list.h ****       typedef const _List_node<_Tp>		_Node;
 268:/opt/gcc-arm-none-eabi-9-2020-q2/arm-none-eabi/include/c++/9.3.1/bits/stl_list.h ****       typedef _List_iterator<_Tp>		iterator;
 269:/opt/gcc-arm-none-eabi-9-2020-q2/arm-none-eabi/include/c++/9.3.1/bits/stl_list.h **** 
 270:/opt/gcc-arm-none-eabi-9-2020-q2/arm-none-eabi/include/c++/9.3.1/bits/stl_list.h ****       typedef ptrdiff_t				difference_type;
 271:/opt/gcc-arm-none-eabi-9-2020-q2/arm-none-eabi/include/c++/9.3.1/bits/stl_list.h ****       typedef std::bidirectional_iterator_tag	iterator_category;
 272:/opt/gcc-arm-none-eabi-9-2020-q2/arm-none-eabi/include/c++/9.3.1/bits/stl_list.h ****       typedef _Tp				value_type;
 273:/opt/gcc-arm-none-eabi-9-2020-q2/arm-none-eabi/include/c++/9.3.1/bits/stl_list.h ****       typedef const _Tp*			pointer;
 274:/opt/gcc-arm-none-eabi-9-2020-q2/arm-none-eabi/include/c++/9.3.1/bits/stl_list.h ****       typedef const _Tp&			reference;
 275:/opt/gcc-arm-none-eabi-9-2020-q2/arm-none-eabi/include/c++/9.3.1/bits/stl_list.h **** 
 276:/opt/gcc-arm-none-eabi-9-2020-q2/arm-none-eabi/include/c++/9.3.1/bits/stl_list.h ****       _List_const_iterator() _GLIBCXX_NOEXCEPT
 277:/opt/gcc-arm-none-eabi-9-2020-q2/arm-none-eabi/include/c++/9.3.1/bits/stl_list.h ****       : _M_node() { }
 278:/opt/gcc-arm-none-eabi-9-2020-q2/arm-none-eabi/include/c++/9.3.1/bits/stl_list.h **** 
 279:/opt/gcc-arm-none-eabi-9-2020-q2/arm-none-eabi/include/c++/9.3.1/bits/stl_list.h ****       explicit
 280:/opt/gcc-arm-none-eabi-9-2020-q2/arm-none-eabi/include/c++/9.3.1/bits/stl_list.h ****       _List_const_iterator(const __detail::_List_node_base* __x)
 281:/opt/gcc-arm-none-eabi-9-2020-q2/arm-none-eabi/include/c++/9.3.1/bits/stl_list.h ****       _GLIBCXX_NOEXCEPT
 282:/opt/gcc-arm-none-eabi-9-2020-q2/arm-none-eabi/include/c++/9.3.1/bits/stl_list.h ****       : _M_node(__x) { }
 283:/opt/gcc-arm-none-eabi-9-2020-q2/arm-none-eabi/include/c++/9.3.1/bits/stl_list.h **** 
 284:/opt/gcc-arm-none-eabi-9-2020-q2/arm-none-eabi/include/c++/9.3.1/bits/stl_list.h ****       _List_const_iterator(const iterator& __x) _GLIBCXX_NOEXCEPT
 285:/opt/gcc-arm-none-eabi-9-2020-q2/arm-none-eabi/include/c++/9.3.1/bits/stl_list.h ****       : _M_node(__x._M_node) { }
 286:/opt/gcc-arm-none-eabi-9-2020-q2/arm-none-eabi/include/c++/9.3.1/bits/stl_list.h **** 
 287:/opt/gcc-arm-none-eabi-9-2020-q2/arm-none-eabi/include/c++/9.3.1/bits/stl_list.h ****       iterator
 288:/opt/gcc-arm-none-eabi-9-2020-q2/arm-none-eabi/include/c++/9.3.1/bits/stl_list.h ****       _M_const_cast() const _GLIBCXX_NOEXCEPT
 289:/opt/gcc-arm-none-eabi-9-2020-q2/arm-none-eabi/include/c++/9.3.1/bits/stl_list.h ****       { return iterator(const_cast<__detail::_List_node_base*>(_M_node)); }
 290:/opt/gcc-arm-none-eabi-9-2020-q2/arm-none-eabi/include/c++/9.3.1/bits/stl_list.h **** 
 291:/opt/gcc-arm-none-eabi-9-2020-q2/arm-none-eabi/include/c++/9.3.1/bits/stl_list.h ****       // Must downcast from List_node_base to _List_node to get to value.
 292:/opt/gcc-arm-none-eabi-9-2020-q2/arm-none-eabi/include/c++/9.3.1/bits/stl_list.h ****       reference
 293:/opt/gcc-arm-none-eabi-9-2020-q2/arm-none-eabi/include/c++/9.3.1/bits/stl_list.h ****       operator*() const _GLIBCXX_NOEXCEPT
 294:/opt/gcc-arm-none-eabi-9-2020-q2/arm-none-eabi/include/c++/9.3.1/bits/stl_list.h ****       { return *static_cast<_Node*>(_M_node)->_M_valptr(); }
 295:/opt/gcc-arm-none-eabi-9-2020-q2/arm-none-eabi/include/c++/9.3.1/bits/stl_list.h **** 
 296:/opt/gcc-arm-none-eabi-9-2020-q2/arm-none-eabi/include/c++/9.3.1/bits/stl_list.h ****       pointer
 297:/opt/gcc-arm-none-eabi-9-2020-q2/arm-none-eabi/include/c++/9.3.1/bits/stl_list.h ****       operator->() const _GLIBCXX_NOEXCEPT
 298:/opt/gcc-arm-none-eabi-9-2020-q2/arm-none-eabi/include/c++/9.3.1/bits/stl_list.h ****       { return static_cast<_Node*>(_M_node)->_M_valptr(); }
 299:/opt/gcc-arm-none-eabi-9-2020-q2/arm-none-eabi/include/c++/9.3.1/bits/stl_list.h **** 
 300:/opt/gcc-arm-none-eabi-9-2020-q2/arm-none-eabi/include/c++/9.3.1/bits/stl_list.h ****       _Self&
 301:/opt/gcc-arm-none-eabi-9-2020-q2/arm-none-eabi/include/c++/9.3.1/bits/stl_list.h ****       operator++() _GLIBCXX_NOEXCEPT
 302:/opt/gcc-arm-none-eabi-9-2020-q2/arm-none-eabi/include/c++/9.3.1/bits/stl_list.h ****       {
 303:/opt/gcc-arm-none-eabi-9-2020-q2/arm-none-eabi/include/c++/9.3.1/bits/stl_list.h **** 	_M_node = _M_node->_M_next;
 304:/opt/gcc-arm-none-eabi-9-2020-q2/arm-none-eabi/include/c++/9.3.1/bits/stl_list.h **** 	return *this;
 305:/opt/gcc-arm-none-eabi-9-2020-q2/arm-none-eabi/include/c++/9.3.1/bits/stl_list.h ****       }
 306:/opt/gcc-arm-none-eabi-9-2020-q2/arm-none-eabi/include/c++/9.3.1/bits/stl_list.h **** 
 307:/opt/gcc-arm-none-eabi-9-2020-q2/arm-none-eabi/include/c++/9.3.1/bits/stl_list.h ****       _Self
 308:/opt/gcc-arm-none-eabi-9-2020-q2/arm-none-eabi/include/c++/9.3.1/bits/stl_list.h ****       operator++(int) _GLIBCXX_NOEXCEPT
 309:/opt/gcc-arm-none-eabi-9-2020-q2/arm-none-eabi/include/c++/9.3.1/bits/stl_list.h ****       {
 310:/opt/gcc-arm-none-eabi-9-2020-q2/arm-none-eabi/include/c++/9.3.1/bits/stl_list.h **** 	_Self __tmp = *this;
 311:/opt/gcc-arm-none-eabi-9-2020-q2/arm-none-eabi/include/c++/9.3.1/bits/stl_list.h **** 	_M_node = _M_node->_M_next;
 312:/opt/gcc-arm-none-eabi-9-2020-q2/arm-none-eabi/include/c++/9.3.1/bits/stl_list.h **** 	return __tmp;
 313:/opt/gcc-arm-none-eabi-9-2020-q2/arm-none-eabi/include/c++/9.3.1/bits/stl_list.h ****       }
 314:/opt/gcc-arm-none-eabi-9-2020-q2/arm-none-eabi/include/c++/9.3.1/bits/stl_list.h **** 
 315:/opt/gcc-arm-none-eabi-9-2020-q2/arm-none-eabi/include/c++/9.3.1/bits/stl_list.h ****       _Self&
 316:/opt/gcc-arm-none-eabi-9-2020-q2/arm-none-eabi/include/c++/9.3.1/bits/stl_list.h ****       operator--() _GLIBCXX_NOEXCEPT
 317:/opt/gcc-arm-none-eabi-9-2020-q2/arm-none-eabi/include/c++/9.3.1/bits/stl_list.h ****       {
 318:/opt/gcc-arm-none-eabi-9-2020-q2/arm-none-eabi/include/c++/9.3.1/bits/stl_list.h **** 	_M_node = _M_node->_M_prev;
 319:/opt/gcc-arm-none-eabi-9-2020-q2/arm-none-eabi/include/c++/9.3.1/bits/stl_list.h **** 	return *this;
 320:/opt/gcc-arm-none-eabi-9-2020-q2/arm-none-eabi/include/c++/9.3.1/bits/stl_list.h ****       }
 321:/opt/gcc-arm-none-eabi-9-2020-q2/arm-none-eabi/include/c++/9.3.1/bits/stl_list.h **** 
ARM GAS  /tmp/ccQ3xVGk.s 			page 20


 322:/opt/gcc-arm-none-eabi-9-2020-q2/arm-none-eabi/include/c++/9.3.1/bits/stl_list.h ****       _Self
 323:/opt/gcc-arm-none-eabi-9-2020-q2/arm-none-eabi/include/c++/9.3.1/bits/stl_list.h ****       operator--(int) _GLIBCXX_NOEXCEPT
 324:/opt/gcc-arm-none-eabi-9-2020-q2/arm-none-eabi/include/c++/9.3.1/bits/stl_list.h ****       {
 325:/opt/gcc-arm-none-eabi-9-2020-q2/arm-none-eabi/include/c++/9.3.1/bits/stl_list.h **** 	_Self __tmp = *this;
 326:/opt/gcc-arm-none-eabi-9-2020-q2/arm-none-eabi/include/c++/9.3.1/bits/stl_list.h **** 	_M_node = _M_node->_M_prev;
 327:/opt/gcc-arm-none-eabi-9-2020-q2/arm-none-eabi/include/c++/9.3.1/bits/stl_list.h **** 	return __tmp;
 328:/opt/gcc-arm-none-eabi-9-2020-q2/arm-none-eabi/include/c++/9.3.1/bits/stl_list.h ****       }
 329:/opt/gcc-arm-none-eabi-9-2020-q2/arm-none-eabi/include/c++/9.3.1/bits/stl_list.h **** 
 330:/opt/gcc-arm-none-eabi-9-2020-q2/arm-none-eabi/include/c++/9.3.1/bits/stl_list.h ****       friend bool
 331:/opt/gcc-arm-none-eabi-9-2020-q2/arm-none-eabi/include/c++/9.3.1/bits/stl_list.h ****       operator==(const _Self& __x, const _Self& __y) _GLIBCXX_NOEXCEPT
 332:/opt/gcc-arm-none-eabi-9-2020-q2/arm-none-eabi/include/c++/9.3.1/bits/stl_list.h ****       { return __x._M_node == __y._M_node; }
 333:/opt/gcc-arm-none-eabi-9-2020-q2/arm-none-eabi/include/c++/9.3.1/bits/stl_list.h **** 
 334:/opt/gcc-arm-none-eabi-9-2020-q2/arm-none-eabi/include/c++/9.3.1/bits/stl_list.h ****       friend bool
 335:/opt/gcc-arm-none-eabi-9-2020-q2/arm-none-eabi/include/c++/9.3.1/bits/stl_list.h ****       operator!=(const _Self& __x, const _Self& __y) _GLIBCXX_NOEXCEPT
 336:/opt/gcc-arm-none-eabi-9-2020-q2/arm-none-eabi/include/c++/9.3.1/bits/stl_list.h ****       { return __x._M_node != __y._M_node; }
 337:/opt/gcc-arm-none-eabi-9-2020-q2/arm-none-eabi/include/c++/9.3.1/bits/stl_list.h **** 
 338:/opt/gcc-arm-none-eabi-9-2020-q2/arm-none-eabi/include/c++/9.3.1/bits/stl_list.h ****       // The only member points to the %list element.
 339:/opt/gcc-arm-none-eabi-9-2020-q2/arm-none-eabi/include/c++/9.3.1/bits/stl_list.h ****       const __detail::_List_node_base* _M_node;
 340:/opt/gcc-arm-none-eabi-9-2020-q2/arm-none-eabi/include/c++/9.3.1/bits/stl_list.h ****     };
 341:/opt/gcc-arm-none-eabi-9-2020-q2/arm-none-eabi/include/c++/9.3.1/bits/stl_list.h **** 
 342:/opt/gcc-arm-none-eabi-9-2020-q2/arm-none-eabi/include/c++/9.3.1/bits/stl_list.h **** _GLIBCXX_BEGIN_NAMESPACE_CXX11
 343:/opt/gcc-arm-none-eabi-9-2020-q2/arm-none-eabi/include/c++/9.3.1/bits/stl_list.h ****   /// See bits/stl_deque.h's _Deque_base for an explanation.
 344:/opt/gcc-arm-none-eabi-9-2020-q2/arm-none-eabi/include/c++/9.3.1/bits/stl_list.h ****   template<typename _Tp, typename _Alloc>
 345:/opt/gcc-arm-none-eabi-9-2020-q2/arm-none-eabi/include/c++/9.3.1/bits/stl_list.h ****     class _List_base
 346:/opt/gcc-arm-none-eabi-9-2020-q2/arm-none-eabi/include/c++/9.3.1/bits/stl_list.h ****     {
 347:/opt/gcc-arm-none-eabi-9-2020-q2/arm-none-eabi/include/c++/9.3.1/bits/stl_list.h ****     protected:
 348:/opt/gcc-arm-none-eabi-9-2020-q2/arm-none-eabi/include/c++/9.3.1/bits/stl_list.h ****       typedef typename __gnu_cxx::__alloc_traits<_Alloc>::template
 349:/opt/gcc-arm-none-eabi-9-2020-q2/arm-none-eabi/include/c++/9.3.1/bits/stl_list.h **** 	rebind<_Tp>::other				_Tp_alloc_type;
 350:/opt/gcc-arm-none-eabi-9-2020-q2/arm-none-eabi/include/c++/9.3.1/bits/stl_list.h ****       typedef __gnu_cxx::__alloc_traits<_Tp_alloc_type>	_Tp_alloc_traits;
 351:/opt/gcc-arm-none-eabi-9-2020-q2/arm-none-eabi/include/c++/9.3.1/bits/stl_list.h ****       typedef typename _Tp_alloc_traits::template
 352:/opt/gcc-arm-none-eabi-9-2020-q2/arm-none-eabi/include/c++/9.3.1/bits/stl_list.h **** 	rebind<_List_node<_Tp> >::other _Node_alloc_type;
 353:/opt/gcc-arm-none-eabi-9-2020-q2/arm-none-eabi/include/c++/9.3.1/bits/stl_list.h ****       typedef __gnu_cxx::__alloc_traits<_Node_alloc_type> _Node_alloc_traits;
 354:/opt/gcc-arm-none-eabi-9-2020-q2/arm-none-eabi/include/c++/9.3.1/bits/stl_list.h **** 
 355:/opt/gcc-arm-none-eabi-9-2020-q2/arm-none-eabi/include/c++/9.3.1/bits/stl_list.h **** #if !_GLIBCXX_INLINE_VERSION
 356:/opt/gcc-arm-none-eabi-9-2020-q2/arm-none-eabi/include/c++/9.3.1/bits/stl_list.h ****       static size_t
 357:/opt/gcc-arm-none-eabi-9-2020-q2/arm-none-eabi/include/c++/9.3.1/bits/stl_list.h ****       _S_distance(const __detail::_List_node_base* __first,
 358:/opt/gcc-arm-none-eabi-9-2020-q2/arm-none-eabi/include/c++/9.3.1/bits/stl_list.h **** 		  const __detail::_List_node_base* __last)
 359:/opt/gcc-arm-none-eabi-9-2020-q2/arm-none-eabi/include/c++/9.3.1/bits/stl_list.h ****       {
 360:/opt/gcc-arm-none-eabi-9-2020-q2/arm-none-eabi/include/c++/9.3.1/bits/stl_list.h **** 	size_t __n = 0;
 361:/opt/gcc-arm-none-eabi-9-2020-q2/arm-none-eabi/include/c++/9.3.1/bits/stl_list.h **** 	while (__first != __last)
 362:/opt/gcc-arm-none-eabi-9-2020-q2/arm-none-eabi/include/c++/9.3.1/bits/stl_list.h **** 	  {
 363:/opt/gcc-arm-none-eabi-9-2020-q2/arm-none-eabi/include/c++/9.3.1/bits/stl_list.h **** 	    __first = __first->_M_next;
 364:/opt/gcc-arm-none-eabi-9-2020-q2/arm-none-eabi/include/c++/9.3.1/bits/stl_list.h **** 	    ++__n;
 365:/opt/gcc-arm-none-eabi-9-2020-q2/arm-none-eabi/include/c++/9.3.1/bits/stl_list.h **** 	  }
 366:/opt/gcc-arm-none-eabi-9-2020-q2/arm-none-eabi/include/c++/9.3.1/bits/stl_list.h **** 	return __n;
 367:/opt/gcc-arm-none-eabi-9-2020-q2/arm-none-eabi/include/c++/9.3.1/bits/stl_list.h ****       }
 368:/opt/gcc-arm-none-eabi-9-2020-q2/arm-none-eabi/include/c++/9.3.1/bits/stl_list.h **** #endif
 369:/opt/gcc-arm-none-eabi-9-2020-q2/arm-none-eabi/include/c++/9.3.1/bits/stl_list.h **** 
 370:/opt/gcc-arm-none-eabi-9-2020-q2/arm-none-eabi/include/c++/9.3.1/bits/stl_list.h ****       struct _List_impl
 371:/opt/gcc-arm-none-eabi-9-2020-q2/arm-none-eabi/include/c++/9.3.1/bits/stl_list.h ****       : public _Node_alloc_type
 372:/opt/gcc-arm-none-eabi-9-2020-q2/arm-none-eabi/include/c++/9.3.1/bits/stl_list.h ****       {
 373:/opt/gcc-arm-none-eabi-9-2020-q2/arm-none-eabi/include/c++/9.3.1/bits/stl_list.h **** 	__detail::_List_node_header _M_node;
 374:/opt/gcc-arm-none-eabi-9-2020-q2/arm-none-eabi/include/c++/9.3.1/bits/stl_list.h **** 
 375:/opt/gcc-arm-none-eabi-9-2020-q2/arm-none-eabi/include/c++/9.3.1/bits/stl_list.h **** 	_List_impl() _GLIBCXX_NOEXCEPT_IF(
 376:/opt/gcc-arm-none-eabi-9-2020-q2/arm-none-eabi/include/c++/9.3.1/bits/stl_list.h **** 	    is_nothrow_default_constructible<_Node_alloc_type>::value)
 377:/opt/gcc-arm-none-eabi-9-2020-q2/arm-none-eabi/include/c++/9.3.1/bits/stl_list.h **** 	: _Node_alloc_type()
 378:/opt/gcc-arm-none-eabi-9-2020-q2/arm-none-eabi/include/c++/9.3.1/bits/stl_list.h **** 	{ }
ARM GAS  /tmp/ccQ3xVGk.s 			page 21


 379:/opt/gcc-arm-none-eabi-9-2020-q2/arm-none-eabi/include/c++/9.3.1/bits/stl_list.h **** 
 380:/opt/gcc-arm-none-eabi-9-2020-q2/arm-none-eabi/include/c++/9.3.1/bits/stl_list.h **** 	_List_impl(const _Node_alloc_type& __a) _GLIBCXX_NOEXCEPT
 381:/opt/gcc-arm-none-eabi-9-2020-q2/arm-none-eabi/include/c++/9.3.1/bits/stl_list.h **** 	: _Node_alloc_type(__a)
 382:/opt/gcc-arm-none-eabi-9-2020-q2/arm-none-eabi/include/c++/9.3.1/bits/stl_list.h **** 	{ }
 383:/opt/gcc-arm-none-eabi-9-2020-q2/arm-none-eabi/include/c++/9.3.1/bits/stl_list.h **** 
 384:/opt/gcc-arm-none-eabi-9-2020-q2/arm-none-eabi/include/c++/9.3.1/bits/stl_list.h **** #if __cplusplus >= 201103L
 385:/opt/gcc-arm-none-eabi-9-2020-q2/arm-none-eabi/include/c++/9.3.1/bits/stl_list.h **** 	_List_impl(_List_impl&&) = default;
 386:/opt/gcc-arm-none-eabi-9-2020-q2/arm-none-eabi/include/c++/9.3.1/bits/stl_list.h **** 
 387:/opt/gcc-arm-none-eabi-9-2020-q2/arm-none-eabi/include/c++/9.3.1/bits/stl_list.h **** 	_List_impl(_Node_alloc_type&& __a, _List_impl&& __x)
 388:/opt/gcc-arm-none-eabi-9-2020-q2/arm-none-eabi/include/c++/9.3.1/bits/stl_list.h **** 	: _Node_alloc_type(std::move(__a)), _M_node(std::move(__x._M_node))
 389:/opt/gcc-arm-none-eabi-9-2020-q2/arm-none-eabi/include/c++/9.3.1/bits/stl_list.h **** 	{ }
 390:/opt/gcc-arm-none-eabi-9-2020-q2/arm-none-eabi/include/c++/9.3.1/bits/stl_list.h **** 
 391:/opt/gcc-arm-none-eabi-9-2020-q2/arm-none-eabi/include/c++/9.3.1/bits/stl_list.h **** 	_List_impl(_Node_alloc_type&& __a) noexcept
 392:/opt/gcc-arm-none-eabi-9-2020-q2/arm-none-eabi/include/c++/9.3.1/bits/stl_list.h **** 	: _Node_alloc_type(std::move(__a))
 393:/opt/gcc-arm-none-eabi-9-2020-q2/arm-none-eabi/include/c++/9.3.1/bits/stl_list.h **** 	{ }
 394:/opt/gcc-arm-none-eabi-9-2020-q2/arm-none-eabi/include/c++/9.3.1/bits/stl_list.h **** #endif
 395:/opt/gcc-arm-none-eabi-9-2020-q2/arm-none-eabi/include/c++/9.3.1/bits/stl_list.h ****       };
 396:/opt/gcc-arm-none-eabi-9-2020-q2/arm-none-eabi/include/c++/9.3.1/bits/stl_list.h **** 
 397:/opt/gcc-arm-none-eabi-9-2020-q2/arm-none-eabi/include/c++/9.3.1/bits/stl_list.h ****       _List_impl _M_impl;
 398:/opt/gcc-arm-none-eabi-9-2020-q2/arm-none-eabi/include/c++/9.3.1/bits/stl_list.h **** 
 399:/opt/gcc-arm-none-eabi-9-2020-q2/arm-none-eabi/include/c++/9.3.1/bits/stl_list.h **** #if _GLIBCXX_USE_CXX11_ABI
 400:/opt/gcc-arm-none-eabi-9-2020-q2/arm-none-eabi/include/c++/9.3.1/bits/stl_list.h ****       size_t _M_get_size() const { return _M_impl._M_node._M_size; }
 401:/opt/gcc-arm-none-eabi-9-2020-q2/arm-none-eabi/include/c++/9.3.1/bits/stl_list.h **** 
 402:/opt/gcc-arm-none-eabi-9-2020-q2/arm-none-eabi/include/c++/9.3.1/bits/stl_list.h ****       void _M_set_size(size_t __n) { _M_impl._M_node._M_size = __n; }
 403:/opt/gcc-arm-none-eabi-9-2020-q2/arm-none-eabi/include/c++/9.3.1/bits/stl_list.h **** 
 404:/opt/gcc-arm-none-eabi-9-2020-q2/arm-none-eabi/include/c++/9.3.1/bits/stl_list.h ****       void _M_inc_size(size_t __n) { _M_impl._M_node._M_size += __n; }
 405:/opt/gcc-arm-none-eabi-9-2020-q2/arm-none-eabi/include/c++/9.3.1/bits/stl_list.h **** 
 406:/opt/gcc-arm-none-eabi-9-2020-q2/arm-none-eabi/include/c++/9.3.1/bits/stl_list.h ****       void _M_dec_size(size_t __n) { _M_impl._M_node._M_size -= __n; }
 407:/opt/gcc-arm-none-eabi-9-2020-q2/arm-none-eabi/include/c++/9.3.1/bits/stl_list.h **** 
 408:/opt/gcc-arm-none-eabi-9-2020-q2/arm-none-eabi/include/c++/9.3.1/bits/stl_list.h **** # if !_GLIBCXX_INLINE_VERSION
 409:/opt/gcc-arm-none-eabi-9-2020-q2/arm-none-eabi/include/c++/9.3.1/bits/stl_list.h ****       size_t
 410:/opt/gcc-arm-none-eabi-9-2020-q2/arm-none-eabi/include/c++/9.3.1/bits/stl_list.h ****       _M_distance(const __detail::_List_node_base* __first,
 411:/opt/gcc-arm-none-eabi-9-2020-q2/arm-none-eabi/include/c++/9.3.1/bits/stl_list.h **** 		  const __detail::_List_node_base* __last) const
 412:/opt/gcc-arm-none-eabi-9-2020-q2/arm-none-eabi/include/c++/9.3.1/bits/stl_list.h ****       { return _S_distance(__first, __last); }
 413:/opt/gcc-arm-none-eabi-9-2020-q2/arm-none-eabi/include/c++/9.3.1/bits/stl_list.h **** 
 414:/opt/gcc-arm-none-eabi-9-2020-q2/arm-none-eabi/include/c++/9.3.1/bits/stl_list.h ****       // return the stored size
 415:/opt/gcc-arm-none-eabi-9-2020-q2/arm-none-eabi/include/c++/9.3.1/bits/stl_list.h ****       size_t _M_node_count() const { return _M_get_size(); }
 416:/opt/gcc-arm-none-eabi-9-2020-q2/arm-none-eabi/include/c++/9.3.1/bits/stl_list.h **** # endif
 417:/opt/gcc-arm-none-eabi-9-2020-q2/arm-none-eabi/include/c++/9.3.1/bits/stl_list.h **** #else
 418:/opt/gcc-arm-none-eabi-9-2020-q2/arm-none-eabi/include/c++/9.3.1/bits/stl_list.h ****       // dummy implementations used when the size is not stored
 419:/opt/gcc-arm-none-eabi-9-2020-q2/arm-none-eabi/include/c++/9.3.1/bits/stl_list.h ****       size_t _M_get_size() const { return 0; }
 420:/opt/gcc-arm-none-eabi-9-2020-q2/arm-none-eabi/include/c++/9.3.1/bits/stl_list.h ****       void _M_set_size(size_t) { }
 421:/opt/gcc-arm-none-eabi-9-2020-q2/arm-none-eabi/include/c++/9.3.1/bits/stl_list.h ****       void _M_inc_size(size_t) { }
 422:/opt/gcc-arm-none-eabi-9-2020-q2/arm-none-eabi/include/c++/9.3.1/bits/stl_list.h ****       void _M_dec_size(size_t) { }
 423:/opt/gcc-arm-none-eabi-9-2020-q2/arm-none-eabi/include/c++/9.3.1/bits/stl_list.h **** 
 424:/opt/gcc-arm-none-eabi-9-2020-q2/arm-none-eabi/include/c++/9.3.1/bits/stl_list.h **** # if !_GLIBCXX_INLINE_VERSION
 425:/opt/gcc-arm-none-eabi-9-2020-q2/arm-none-eabi/include/c++/9.3.1/bits/stl_list.h ****       size_t _M_distance(const void*, const void*) const { return 0; }
 426:/opt/gcc-arm-none-eabi-9-2020-q2/arm-none-eabi/include/c++/9.3.1/bits/stl_list.h **** 
 427:/opt/gcc-arm-none-eabi-9-2020-q2/arm-none-eabi/include/c++/9.3.1/bits/stl_list.h ****       // count the number of nodes
 428:/opt/gcc-arm-none-eabi-9-2020-q2/arm-none-eabi/include/c++/9.3.1/bits/stl_list.h ****       size_t _M_node_count() const
 429:/opt/gcc-arm-none-eabi-9-2020-q2/arm-none-eabi/include/c++/9.3.1/bits/stl_list.h ****       {
 430:/opt/gcc-arm-none-eabi-9-2020-q2/arm-none-eabi/include/c++/9.3.1/bits/stl_list.h **** 	return _S_distance(_M_impl._M_node._M_next,
 431:/opt/gcc-arm-none-eabi-9-2020-q2/arm-none-eabi/include/c++/9.3.1/bits/stl_list.h **** 			   std::__addressof(_M_impl._M_node));
 432:/opt/gcc-arm-none-eabi-9-2020-q2/arm-none-eabi/include/c++/9.3.1/bits/stl_list.h ****       }
 433:/opt/gcc-arm-none-eabi-9-2020-q2/arm-none-eabi/include/c++/9.3.1/bits/stl_list.h **** # endif
 434:/opt/gcc-arm-none-eabi-9-2020-q2/arm-none-eabi/include/c++/9.3.1/bits/stl_list.h **** #endif
 435:/opt/gcc-arm-none-eabi-9-2020-q2/arm-none-eabi/include/c++/9.3.1/bits/stl_list.h **** 
ARM GAS  /tmp/ccQ3xVGk.s 			page 22


 436:/opt/gcc-arm-none-eabi-9-2020-q2/arm-none-eabi/include/c++/9.3.1/bits/stl_list.h ****       typename _Node_alloc_traits::pointer
 437:/opt/gcc-arm-none-eabi-9-2020-q2/arm-none-eabi/include/c++/9.3.1/bits/stl_list.h ****       _M_get_node()
 438:/opt/gcc-arm-none-eabi-9-2020-q2/arm-none-eabi/include/c++/9.3.1/bits/stl_list.h ****       { return _Node_alloc_traits::allocate(_M_impl, 1); }
 439:/opt/gcc-arm-none-eabi-9-2020-q2/arm-none-eabi/include/c++/9.3.1/bits/stl_list.h **** 
 440:/opt/gcc-arm-none-eabi-9-2020-q2/arm-none-eabi/include/c++/9.3.1/bits/stl_list.h ****       void
 441:/opt/gcc-arm-none-eabi-9-2020-q2/arm-none-eabi/include/c++/9.3.1/bits/stl_list.h ****       _M_put_node(typename _Node_alloc_traits::pointer __p) _GLIBCXX_NOEXCEPT
 442:/opt/gcc-arm-none-eabi-9-2020-q2/arm-none-eabi/include/c++/9.3.1/bits/stl_list.h ****       { _Node_alloc_traits::deallocate(_M_impl, __p, 1); }
 443:/opt/gcc-arm-none-eabi-9-2020-q2/arm-none-eabi/include/c++/9.3.1/bits/stl_list.h **** 
 444:/opt/gcc-arm-none-eabi-9-2020-q2/arm-none-eabi/include/c++/9.3.1/bits/stl_list.h ****   public:
 445:/opt/gcc-arm-none-eabi-9-2020-q2/arm-none-eabi/include/c++/9.3.1/bits/stl_list.h ****       typedef _Alloc allocator_type;
 446:/opt/gcc-arm-none-eabi-9-2020-q2/arm-none-eabi/include/c++/9.3.1/bits/stl_list.h **** 
 447:/opt/gcc-arm-none-eabi-9-2020-q2/arm-none-eabi/include/c++/9.3.1/bits/stl_list.h ****       _Node_alloc_type&
 448:/opt/gcc-arm-none-eabi-9-2020-q2/arm-none-eabi/include/c++/9.3.1/bits/stl_list.h ****       _M_get_Node_allocator() _GLIBCXX_NOEXCEPT
 449:/opt/gcc-arm-none-eabi-9-2020-q2/arm-none-eabi/include/c++/9.3.1/bits/stl_list.h ****       { return _M_impl; }
 450:/opt/gcc-arm-none-eabi-9-2020-q2/arm-none-eabi/include/c++/9.3.1/bits/stl_list.h **** 
 451:/opt/gcc-arm-none-eabi-9-2020-q2/arm-none-eabi/include/c++/9.3.1/bits/stl_list.h ****       const _Node_alloc_type&
 452:/opt/gcc-arm-none-eabi-9-2020-q2/arm-none-eabi/include/c++/9.3.1/bits/stl_list.h ****       _M_get_Node_allocator() const _GLIBCXX_NOEXCEPT
 453:/opt/gcc-arm-none-eabi-9-2020-q2/arm-none-eabi/include/c++/9.3.1/bits/stl_list.h ****       { return _M_impl; }
 454:/opt/gcc-arm-none-eabi-9-2020-q2/arm-none-eabi/include/c++/9.3.1/bits/stl_list.h **** 
 455:/opt/gcc-arm-none-eabi-9-2020-q2/arm-none-eabi/include/c++/9.3.1/bits/stl_list.h **** #if __cplusplus >= 201103L
 456:/opt/gcc-arm-none-eabi-9-2020-q2/arm-none-eabi/include/c++/9.3.1/bits/stl_list.h ****       _List_base() = default;
 457:/opt/gcc-arm-none-eabi-9-2020-q2/arm-none-eabi/include/c++/9.3.1/bits/stl_list.h **** #else
 458:/opt/gcc-arm-none-eabi-9-2020-q2/arm-none-eabi/include/c++/9.3.1/bits/stl_list.h ****       _List_base() { }
 459:/opt/gcc-arm-none-eabi-9-2020-q2/arm-none-eabi/include/c++/9.3.1/bits/stl_list.h **** #endif
 460:/opt/gcc-arm-none-eabi-9-2020-q2/arm-none-eabi/include/c++/9.3.1/bits/stl_list.h **** 
 461:/opt/gcc-arm-none-eabi-9-2020-q2/arm-none-eabi/include/c++/9.3.1/bits/stl_list.h ****       _List_base(const _Node_alloc_type& __a) _GLIBCXX_NOEXCEPT
 462:/opt/gcc-arm-none-eabi-9-2020-q2/arm-none-eabi/include/c++/9.3.1/bits/stl_list.h ****       : _M_impl(__a)
 463:/opt/gcc-arm-none-eabi-9-2020-q2/arm-none-eabi/include/c++/9.3.1/bits/stl_list.h ****       { }
 464:/opt/gcc-arm-none-eabi-9-2020-q2/arm-none-eabi/include/c++/9.3.1/bits/stl_list.h **** 
 465:/opt/gcc-arm-none-eabi-9-2020-q2/arm-none-eabi/include/c++/9.3.1/bits/stl_list.h **** #if __cplusplus >= 201103L
 466:/opt/gcc-arm-none-eabi-9-2020-q2/arm-none-eabi/include/c++/9.3.1/bits/stl_list.h ****       _List_base(_List_base&&) = default;
 467:/opt/gcc-arm-none-eabi-9-2020-q2/arm-none-eabi/include/c++/9.3.1/bits/stl_list.h **** 
 468:/opt/gcc-arm-none-eabi-9-2020-q2/arm-none-eabi/include/c++/9.3.1/bits/stl_list.h **** # if !_GLIBCXX_INLINE_VERSION
 469:/opt/gcc-arm-none-eabi-9-2020-q2/arm-none-eabi/include/c++/9.3.1/bits/stl_list.h ****       _List_base(_List_base&& __x, _Node_alloc_type&& __a)
 470:/opt/gcc-arm-none-eabi-9-2020-q2/arm-none-eabi/include/c++/9.3.1/bits/stl_list.h ****       : _M_impl(std::move(__a))
 471:/opt/gcc-arm-none-eabi-9-2020-q2/arm-none-eabi/include/c++/9.3.1/bits/stl_list.h ****       {
 472:/opt/gcc-arm-none-eabi-9-2020-q2/arm-none-eabi/include/c++/9.3.1/bits/stl_list.h **** 	if (__x._M_get_Node_allocator() == _M_get_Node_allocator())
 473:/opt/gcc-arm-none-eabi-9-2020-q2/arm-none-eabi/include/c++/9.3.1/bits/stl_list.h **** 	  _M_move_nodes(std::move(__x));
 474:/opt/gcc-arm-none-eabi-9-2020-q2/arm-none-eabi/include/c++/9.3.1/bits/stl_list.h **** 	// else caller must move individual elements.
 475:/opt/gcc-arm-none-eabi-9-2020-q2/arm-none-eabi/include/c++/9.3.1/bits/stl_list.h ****       }
 476:/opt/gcc-arm-none-eabi-9-2020-q2/arm-none-eabi/include/c++/9.3.1/bits/stl_list.h **** # endif
 477:/opt/gcc-arm-none-eabi-9-2020-q2/arm-none-eabi/include/c++/9.3.1/bits/stl_list.h **** 
 478:/opt/gcc-arm-none-eabi-9-2020-q2/arm-none-eabi/include/c++/9.3.1/bits/stl_list.h ****       // Used when allocator is_always_equal.
 479:/opt/gcc-arm-none-eabi-9-2020-q2/arm-none-eabi/include/c++/9.3.1/bits/stl_list.h ****       _List_base(_Node_alloc_type&& __a, _List_base&& __x)
 480:/opt/gcc-arm-none-eabi-9-2020-q2/arm-none-eabi/include/c++/9.3.1/bits/stl_list.h ****       : _M_impl(std::move(__a), std::move(__x._M_impl))
 481:/opt/gcc-arm-none-eabi-9-2020-q2/arm-none-eabi/include/c++/9.3.1/bits/stl_list.h ****       { }
 482:/opt/gcc-arm-none-eabi-9-2020-q2/arm-none-eabi/include/c++/9.3.1/bits/stl_list.h **** 
 483:/opt/gcc-arm-none-eabi-9-2020-q2/arm-none-eabi/include/c++/9.3.1/bits/stl_list.h ****       // Used when allocator !is_always_equal.
 484:/opt/gcc-arm-none-eabi-9-2020-q2/arm-none-eabi/include/c++/9.3.1/bits/stl_list.h ****       _List_base(_Node_alloc_type&& __a)
 485:/opt/gcc-arm-none-eabi-9-2020-q2/arm-none-eabi/include/c++/9.3.1/bits/stl_list.h ****       : _M_impl(std::move(__a))
 486:/opt/gcc-arm-none-eabi-9-2020-q2/arm-none-eabi/include/c++/9.3.1/bits/stl_list.h ****       { }
 487:/opt/gcc-arm-none-eabi-9-2020-q2/arm-none-eabi/include/c++/9.3.1/bits/stl_list.h **** 
 488:/opt/gcc-arm-none-eabi-9-2020-q2/arm-none-eabi/include/c++/9.3.1/bits/stl_list.h ****       void
 489:/opt/gcc-arm-none-eabi-9-2020-q2/arm-none-eabi/include/c++/9.3.1/bits/stl_list.h ****       _M_move_nodes(_List_base&& __x)
 490:/opt/gcc-arm-none-eabi-9-2020-q2/arm-none-eabi/include/c++/9.3.1/bits/stl_list.h ****       { _M_impl._M_node._M_move_nodes(std::move(__x._M_impl._M_node)); }
 491:/opt/gcc-arm-none-eabi-9-2020-q2/arm-none-eabi/include/c++/9.3.1/bits/stl_list.h **** #endif
 492:/opt/gcc-arm-none-eabi-9-2020-q2/arm-none-eabi/include/c++/9.3.1/bits/stl_list.h **** 
ARM GAS  /tmp/ccQ3xVGk.s 			page 23


 493:/opt/gcc-arm-none-eabi-9-2020-q2/arm-none-eabi/include/c++/9.3.1/bits/stl_list.h ****       // This is what actually destroys the list.
 494:/opt/gcc-arm-none-eabi-9-2020-q2/arm-none-eabi/include/c++/9.3.1/bits/stl_list.h ****       ~_List_base() _GLIBCXX_NOEXCEPT
 495:/opt/gcc-arm-none-eabi-9-2020-q2/arm-none-eabi/include/c++/9.3.1/bits/stl_list.h ****       { _M_clear(); }
 496:/opt/gcc-arm-none-eabi-9-2020-q2/arm-none-eabi/include/c++/9.3.1/bits/stl_list.h **** 
 497:/opt/gcc-arm-none-eabi-9-2020-q2/arm-none-eabi/include/c++/9.3.1/bits/stl_list.h ****       void
 498:/opt/gcc-arm-none-eabi-9-2020-q2/arm-none-eabi/include/c++/9.3.1/bits/stl_list.h ****       _M_clear() _GLIBCXX_NOEXCEPT;
 499:/opt/gcc-arm-none-eabi-9-2020-q2/arm-none-eabi/include/c++/9.3.1/bits/stl_list.h **** 
 500:/opt/gcc-arm-none-eabi-9-2020-q2/arm-none-eabi/include/c++/9.3.1/bits/stl_list.h ****       void
 501:/opt/gcc-arm-none-eabi-9-2020-q2/arm-none-eabi/include/c++/9.3.1/bits/stl_list.h ****       _M_init() _GLIBCXX_NOEXCEPT
 502:/opt/gcc-arm-none-eabi-9-2020-q2/arm-none-eabi/include/c++/9.3.1/bits/stl_list.h ****       { this->_M_impl._M_node._M_init(); }
 503:/opt/gcc-arm-none-eabi-9-2020-q2/arm-none-eabi/include/c++/9.3.1/bits/stl_list.h ****     };
 504:/opt/gcc-arm-none-eabi-9-2020-q2/arm-none-eabi/include/c++/9.3.1/bits/stl_list.h **** 
 505:/opt/gcc-arm-none-eabi-9-2020-q2/arm-none-eabi/include/c++/9.3.1/bits/stl_list.h ****   /**
 506:/opt/gcc-arm-none-eabi-9-2020-q2/arm-none-eabi/include/c++/9.3.1/bits/stl_list.h ****    *  @brief A standard container with linear time access to elements,
 507:/opt/gcc-arm-none-eabi-9-2020-q2/arm-none-eabi/include/c++/9.3.1/bits/stl_list.h ****    *  and fixed time insertion/deletion at any point in the sequence.
 508:/opt/gcc-arm-none-eabi-9-2020-q2/arm-none-eabi/include/c++/9.3.1/bits/stl_list.h ****    *
 509:/opt/gcc-arm-none-eabi-9-2020-q2/arm-none-eabi/include/c++/9.3.1/bits/stl_list.h ****    *  @ingroup sequences
 510:/opt/gcc-arm-none-eabi-9-2020-q2/arm-none-eabi/include/c++/9.3.1/bits/stl_list.h ****    *
 511:/opt/gcc-arm-none-eabi-9-2020-q2/arm-none-eabi/include/c++/9.3.1/bits/stl_list.h ****    *  @tparam _Tp  Type of element.
 512:/opt/gcc-arm-none-eabi-9-2020-q2/arm-none-eabi/include/c++/9.3.1/bits/stl_list.h ****    *  @tparam _Alloc  Allocator type, defaults to allocator<_Tp>.
 513:/opt/gcc-arm-none-eabi-9-2020-q2/arm-none-eabi/include/c++/9.3.1/bits/stl_list.h ****    *
 514:/opt/gcc-arm-none-eabi-9-2020-q2/arm-none-eabi/include/c++/9.3.1/bits/stl_list.h ****    *  Meets the requirements of a <a href="tables.html#65">container</a>, a
 515:/opt/gcc-arm-none-eabi-9-2020-q2/arm-none-eabi/include/c++/9.3.1/bits/stl_list.h ****    *  <a href="tables.html#66">reversible container</a>, and a
 516:/opt/gcc-arm-none-eabi-9-2020-q2/arm-none-eabi/include/c++/9.3.1/bits/stl_list.h ****    *  <a href="tables.html#67">sequence</a>, including the
 517:/opt/gcc-arm-none-eabi-9-2020-q2/arm-none-eabi/include/c++/9.3.1/bits/stl_list.h ****    *  <a href="tables.html#68">optional sequence requirements</a> with the
 518:/opt/gcc-arm-none-eabi-9-2020-q2/arm-none-eabi/include/c++/9.3.1/bits/stl_list.h ****    *  %exception of @c at and @c operator[].
 519:/opt/gcc-arm-none-eabi-9-2020-q2/arm-none-eabi/include/c++/9.3.1/bits/stl_list.h ****    *
 520:/opt/gcc-arm-none-eabi-9-2020-q2/arm-none-eabi/include/c++/9.3.1/bits/stl_list.h ****    *  This is a @e doubly @e linked %list.  Traversal up and down the
 521:/opt/gcc-arm-none-eabi-9-2020-q2/arm-none-eabi/include/c++/9.3.1/bits/stl_list.h ****    *  %list requires linear time, but adding and removing elements (or
 522:/opt/gcc-arm-none-eabi-9-2020-q2/arm-none-eabi/include/c++/9.3.1/bits/stl_list.h ****    *  @e nodes) is done in constant time, regardless of where the
 523:/opt/gcc-arm-none-eabi-9-2020-q2/arm-none-eabi/include/c++/9.3.1/bits/stl_list.h ****    *  change takes place.  Unlike std::vector and std::deque,
 524:/opt/gcc-arm-none-eabi-9-2020-q2/arm-none-eabi/include/c++/9.3.1/bits/stl_list.h ****    *  random-access iterators are not provided, so subscripting ( @c
 525:/opt/gcc-arm-none-eabi-9-2020-q2/arm-none-eabi/include/c++/9.3.1/bits/stl_list.h ****    *  [] ) access is not allowed.  For algorithms which only need
 526:/opt/gcc-arm-none-eabi-9-2020-q2/arm-none-eabi/include/c++/9.3.1/bits/stl_list.h ****    *  sequential access, this lack makes no difference.
 527:/opt/gcc-arm-none-eabi-9-2020-q2/arm-none-eabi/include/c++/9.3.1/bits/stl_list.h ****    *
 528:/opt/gcc-arm-none-eabi-9-2020-q2/arm-none-eabi/include/c++/9.3.1/bits/stl_list.h ****    *  Also unlike the other standard containers, std::list provides
 529:/opt/gcc-arm-none-eabi-9-2020-q2/arm-none-eabi/include/c++/9.3.1/bits/stl_list.h ****    *  specialized algorithms %unique to linked lists, such as
 530:/opt/gcc-arm-none-eabi-9-2020-q2/arm-none-eabi/include/c++/9.3.1/bits/stl_list.h ****    *  splicing, sorting, and in-place reversal.
 531:/opt/gcc-arm-none-eabi-9-2020-q2/arm-none-eabi/include/c++/9.3.1/bits/stl_list.h ****    *
 532:/opt/gcc-arm-none-eabi-9-2020-q2/arm-none-eabi/include/c++/9.3.1/bits/stl_list.h ****    *  A couple points on memory allocation for list<Tp>:
 533:/opt/gcc-arm-none-eabi-9-2020-q2/arm-none-eabi/include/c++/9.3.1/bits/stl_list.h ****    *
 534:/opt/gcc-arm-none-eabi-9-2020-q2/arm-none-eabi/include/c++/9.3.1/bits/stl_list.h ****    *  First, we never actually allocate a Tp, we allocate
 535:/opt/gcc-arm-none-eabi-9-2020-q2/arm-none-eabi/include/c++/9.3.1/bits/stl_list.h ****    *  List_node<Tp>'s and trust [20.1.5]/4 to DTRT.  This is to ensure
 536:/opt/gcc-arm-none-eabi-9-2020-q2/arm-none-eabi/include/c++/9.3.1/bits/stl_list.h ****    *  that after elements from %list<X,Alloc1> are spliced into
 537:/opt/gcc-arm-none-eabi-9-2020-q2/arm-none-eabi/include/c++/9.3.1/bits/stl_list.h ****    *  %list<X,Alloc2>, destroying the memory of the second %list is a
 538:/opt/gcc-arm-none-eabi-9-2020-q2/arm-none-eabi/include/c++/9.3.1/bits/stl_list.h ****    *  valid operation, i.e., Alloc1 giveth and Alloc2 taketh away.
 539:/opt/gcc-arm-none-eabi-9-2020-q2/arm-none-eabi/include/c++/9.3.1/bits/stl_list.h ****    *
 540:/opt/gcc-arm-none-eabi-9-2020-q2/arm-none-eabi/include/c++/9.3.1/bits/stl_list.h ****    *  Second, a %list conceptually represented as
 541:/opt/gcc-arm-none-eabi-9-2020-q2/arm-none-eabi/include/c++/9.3.1/bits/stl_list.h ****    *  @code
 542:/opt/gcc-arm-none-eabi-9-2020-q2/arm-none-eabi/include/c++/9.3.1/bits/stl_list.h ****    *    A <---> B <---> C <---> D
 543:/opt/gcc-arm-none-eabi-9-2020-q2/arm-none-eabi/include/c++/9.3.1/bits/stl_list.h ****    *  @endcode
 544:/opt/gcc-arm-none-eabi-9-2020-q2/arm-none-eabi/include/c++/9.3.1/bits/stl_list.h ****    *  is actually circular; a link exists between A and D.  The %list
 545:/opt/gcc-arm-none-eabi-9-2020-q2/arm-none-eabi/include/c++/9.3.1/bits/stl_list.h ****    *  class holds (as its only data member) a private list::iterator
 546:/opt/gcc-arm-none-eabi-9-2020-q2/arm-none-eabi/include/c++/9.3.1/bits/stl_list.h ****    *  pointing to @e D, not to @e A!  To get to the head of the %list,
 547:/opt/gcc-arm-none-eabi-9-2020-q2/arm-none-eabi/include/c++/9.3.1/bits/stl_list.h ****    *  we start at the tail and move forward by one.  When this member
 548:/opt/gcc-arm-none-eabi-9-2020-q2/arm-none-eabi/include/c++/9.3.1/bits/stl_list.h ****    *  iterator's next/previous pointers refer to itself, the %list is
 549:/opt/gcc-arm-none-eabi-9-2020-q2/arm-none-eabi/include/c++/9.3.1/bits/stl_list.h ****    *  %empty.
ARM GAS  /tmp/ccQ3xVGk.s 			page 24


 550:/opt/gcc-arm-none-eabi-9-2020-q2/arm-none-eabi/include/c++/9.3.1/bits/stl_list.h ****   */
 551:/opt/gcc-arm-none-eabi-9-2020-q2/arm-none-eabi/include/c++/9.3.1/bits/stl_list.h ****   template<typename _Tp, typename _Alloc = std::allocator<_Tp> >
 552:/opt/gcc-arm-none-eabi-9-2020-q2/arm-none-eabi/include/c++/9.3.1/bits/stl_list.h ****     class list : protected _List_base<_Tp, _Alloc>
 553:/opt/gcc-arm-none-eabi-9-2020-q2/arm-none-eabi/include/c++/9.3.1/bits/stl_list.h ****     {
 554:/opt/gcc-arm-none-eabi-9-2020-q2/arm-none-eabi/include/c++/9.3.1/bits/stl_list.h **** #ifdef _GLIBCXX_CONCEPT_CHECKS
 555:/opt/gcc-arm-none-eabi-9-2020-q2/arm-none-eabi/include/c++/9.3.1/bits/stl_list.h ****       // concept requirements
 556:/opt/gcc-arm-none-eabi-9-2020-q2/arm-none-eabi/include/c++/9.3.1/bits/stl_list.h ****       typedef typename _Alloc::value_type		_Alloc_value_type;
 557:/opt/gcc-arm-none-eabi-9-2020-q2/arm-none-eabi/include/c++/9.3.1/bits/stl_list.h **** # if __cplusplus < 201103L
 558:/opt/gcc-arm-none-eabi-9-2020-q2/arm-none-eabi/include/c++/9.3.1/bits/stl_list.h ****       __glibcxx_class_requires(_Tp, _SGIAssignableConcept)
 559:/opt/gcc-arm-none-eabi-9-2020-q2/arm-none-eabi/include/c++/9.3.1/bits/stl_list.h **** # endif
 560:/opt/gcc-arm-none-eabi-9-2020-q2/arm-none-eabi/include/c++/9.3.1/bits/stl_list.h ****       __glibcxx_class_requires2(_Tp, _Alloc_value_type, _SameTypeConcept)
 561:/opt/gcc-arm-none-eabi-9-2020-q2/arm-none-eabi/include/c++/9.3.1/bits/stl_list.h **** #endif
 562:/opt/gcc-arm-none-eabi-9-2020-q2/arm-none-eabi/include/c++/9.3.1/bits/stl_list.h **** 
 563:/opt/gcc-arm-none-eabi-9-2020-q2/arm-none-eabi/include/c++/9.3.1/bits/stl_list.h **** #if __cplusplus >= 201103L
 564:/opt/gcc-arm-none-eabi-9-2020-q2/arm-none-eabi/include/c++/9.3.1/bits/stl_list.h ****       static_assert(is_same<typename remove_cv<_Tp>::type, _Tp>::value,
 565:/opt/gcc-arm-none-eabi-9-2020-q2/arm-none-eabi/include/c++/9.3.1/bits/stl_list.h **** 	  "std::list must have a non-const, non-volatile value_type");
 566:/opt/gcc-arm-none-eabi-9-2020-q2/arm-none-eabi/include/c++/9.3.1/bits/stl_list.h **** # ifdef __STRICT_ANSI__
 567:/opt/gcc-arm-none-eabi-9-2020-q2/arm-none-eabi/include/c++/9.3.1/bits/stl_list.h ****       static_assert(is_same<typename _Alloc::value_type, _Tp>::value,
 568:/opt/gcc-arm-none-eabi-9-2020-q2/arm-none-eabi/include/c++/9.3.1/bits/stl_list.h **** 	  "std::list must have the same value_type as its allocator");
 569:/opt/gcc-arm-none-eabi-9-2020-q2/arm-none-eabi/include/c++/9.3.1/bits/stl_list.h **** # endif
 570:/opt/gcc-arm-none-eabi-9-2020-q2/arm-none-eabi/include/c++/9.3.1/bits/stl_list.h **** #endif
 571:/opt/gcc-arm-none-eabi-9-2020-q2/arm-none-eabi/include/c++/9.3.1/bits/stl_list.h **** 
 572:/opt/gcc-arm-none-eabi-9-2020-q2/arm-none-eabi/include/c++/9.3.1/bits/stl_list.h ****       typedef _List_base<_Tp, _Alloc>			_Base;
 573:/opt/gcc-arm-none-eabi-9-2020-q2/arm-none-eabi/include/c++/9.3.1/bits/stl_list.h ****       typedef typename _Base::_Tp_alloc_type		_Tp_alloc_type;
 574:/opt/gcc-arm-none-eabi-9-2020-q2/arm-none-eabi/include/c++/9.3.1/bits/stl_list.h ****       typedef typename _Base::_Tp_alloc_traits		_Tp_alloc_traits;
 575:/opt/gcc-arm-none-eabi-9-2020-q2/arm-none-eabi/include/c++/9.3.1/bits/stl_list.h ****       typedef typename _Base::_Node_alloc_type		_Node_alloc_type;
 576:/opt/gcc-arm-none-eabi-9-2020-q2/arm-none-eabi/include/c++/9.3.1/bits/stl_list.h ****       typedef typename _Base::_Node_alloc_traits	_Node_alloc_traits;
 577:/opt/gcc-arm-none-eabi-9-2020-q2/arm-none-eabi/include/c++/9.3.1/bits/stl_list.h **** 
 578:/opt/gcc-arm-none-eabi-9-2020-q2/arm-none-eabi/include/c++/9.3.1/bits/stl_list.h ****     public:
 579:/opt/gcc-arm-none-eabi-9-2020-q2/arm-none-eabi/include/c++/9.3.1/bits/stl_list.h ****       typedef _Tp					 value_type;
 580:/opt/gcc-arm-none-eabi-9-2020-q2/arm-none-eabi/include/c++/9.3.1/bits/stl_list.h ****       typedef typename _Tp_alloc_traits::pointer	 pointer;
 581:/opt/gcc-arm-none-eabi-9-2020-q2/arm-none-eabi/include/c++/9.3.1/bits/stl_list.h ****       typedef typename _Tp_alloc_traits::const_pointer	 const_pointer;
 582:/opt/gcc-arm-none-eabi-9-2020-q2/arm-none-eabi/include/c++/9.3.1/bits/stl_list.h ****       typedef typename _Tp_alloc_traits::reference	 reference;
 583:/opt/gcc-arm-none-eabi-9-2020-q2/arm-none-eabi/include/c++/9.3.1/bits/stl_list.h ****       typedef typename _Tp_alloc_traits::const_reference const_reference;
 584:/opt/gcc-arm-none-eabi-9-2020-q2/arm-none-eabi/include/c++/9.3.1/bits/stl_list.h ****       typedef _List_iterator<_Tp>			 iterator;
 585:/opt/gcc-arm-none-eabi-9-2020-q2/arm-none-eabi/include/c++/9.3.1/bits/stl_list.h ****       typedef _List_const_iterator<_Tp>			 const_iterator;
 586:/opt/gcc-arm-none-eabi-9-2020-q2/arm-none-eabi/include/c++/9.3.1/bits/stl_list.h ****       typedef std::reverse_iterator<const_iterator>	 const_reverse_iterator;
 587:/opt/gcc-arm-none-eabi-9-2020-q2/arm-none-eabi/include/c++/9.3.1/bits/stl_list.h ****       typedef std::reverse_iterator<iterator>		 reverse_iterator;
 588:/opt/gcc-arm-none-eabi-9-2020-q2/arm-none-eabi/include/c++/9.3.1/bits/stl_list.h ****       typedef size_t					 size_type;
 589:/opt/gcc-arm-none-eabi-9-2020-q2/arm-none-eabi/include/c++/9.3.1/bits/stl_list.h ****       typedef ptrdiff_t					 difference_type;
 590:/opt/gcc-arm-none-eabi-9-2020-q2/arm-none-eabi/include/c++/9.3.1/bits/stl_list.h ****       typedef _Alloc					 allocator_type;
 591:/opt/gcc-arm-none-eabi-9-2020-q2/arm-none-eabi/include/c++/9.3.1/bits/stl_list.h **** 
 592:/opt/gcc-arm-none-eabi-9-2020-q2/arm-none-eabi/include/c++/9.3.1/bits/stl_list.h ****     protected:
 593:/opt/gcc-arm-none-eabi-9-2020-q2/arm-none-eabi/include/c++/9.3.1/bits/stl_list.h ****       // Note that pointers-to-_Node's can be ctor-converted to
 594:/opt/gcc-arm-none-eabi-9-2020-q2/arm-none-eabi/include/c++/9.3.1/bits/stl_list.h ****       // iterator types.
 595:/opt/gcc-arm-none-eabi-9-2020-q2/arm-none-eabi/include/c++/9.3.1/bits/stl_list.h ****       typedef _List_node<_Tp>				 _Node;
 596:/opt/gcc-arm-none-eabi-9-2020-q2/arm-none-eabi/include/c++/9.3.1/bits/stl_list.h **** 
 597:/opt/gcc-arm-none-eabi-9-2020-q2/arm-none-eabi/include/c++/9.3.1/bits/stl_list.h ****       using _Base::_M_impl;
 598:/opt/gcc-arm-none-eabi-9-2020-q2/arm-none-eabi/include/c++/9.3.1/bits/stl_list.h ****       using _Base::_M_put_node;
 599:/opt/gcc-arm-none-eabi-9-2020-q2/arm-none-eabi/include/c++/9.3.1/bits/stl_list.h ****       using _Base::_M_get_node;
 600:/opt/gcc-arm-none-eabi-9-2020-q2/arm-none-eabi/include/c++/9.3.1/bits/stl_list.h ****       using _Base::_M_get_Node_allocator;
 601:/opt/gcc-arm-none-eabi-9-2020-q2/arm-none-eabi/include/c++/9.3.1/bits/stl_list.h **** 
 602:/opt/gcc-arm-none-eabi-9-2020-q2/arm-none-eabi/include/c++/9.3.1/bits/stl_list.h ****       /**
 603:/opt/gcc-arm-none-eabi-9-2020-q2/arm-none-eabi/include/c++/9.3.1/bits/stl_list.h ****        *  @param  __args  An instance of user data.
 604:/opt/gcc-arm-none-eabi-9-2020-q2/arm-none-eabi/include/c++/9.3.1/bits/stl_list.h ****        *
 605:/opt/gcc-arm-none-eabi-9-2020-q2/arm-none-eabi/include/c++/9.3.1/bits/stl_list.h ****        *  Allocates space for a new node and constructs a copy of
 606:/opt/gcc-arm-none-eabi-9-2020-q2/arm-none-eabi/include/c++/9.3.1/bits/stl_list.h ****        *  @a __args in it.
ARM GAS  /tmp/ccQ3xVGk.s 			page 25


 607:/opt/gcc-arm-none-eabi-9-2020-q2/arm-none-eabi/include/c++/9.3.1/bits/stl_list.h ****        */
 608:/opt/gcc-arm-none-eabi-9-2020-q2/arm-none-eabi/include/c++/9.3.1/bits/stl_list.h **** #if __cplusplus < 201103L
 609:/opt/gcc-arm-none-eabi-9-2020-q2/arm-none-eabi/include/c++/9.3.1/bits/stl_list.h ****       _Node*
 610:/opt/gcc-arm-none-eabi-9-2020-q2/arm-none-eabi/include/c++/9.3.1/bits/stl_list.h ****       _M_create_node(const value_type& __x)
 611:/opt/gcc-arm-none-eabi-9-2020-q2/arm-none-eabi/include/c++/9.3.1/bits/stl_list.h ****       {
 612:/opt/gcc-arm-none-eabi-9-2020-q2/arm-none-eabi/include/c++/9.3.1/bits/stl_list.h **** 	_Node* __p = this->_M_get_node();
 613:/opt/gcc-arm-none-eabi-9-2020-q2/arm-none-eabi/include/c++/9.3.1/bits/stl_list.h **** 	__try
 614:/opt/gcc-arm-none-eabi-9-2020-q2/arm-none-eabi/include/c++/9.3.1/bits/stl_list.h **** 	  {
 615:/opt/gcc-arm-none-eabi-9-2020-q2/arm-none-eabi/include/c++/9.3.1/bits/stl_list.h **** 	    _Tp_alloc_type __alloc(_M_get_Node_allocator());
 616:/opt/gcc-arm-none-eabi-9-2020-q2/arm-none-eabi/include/c++/9.3.1/bits/stl_list.h **** 	    __alloc.construct(__p->_M_valptr(), __x);
 617:/opt/gcc-arm-none-eabi-9-2020-q2/arm-none-eabi/include/c++/9.3.1/bits/stl_list.h **** 	  }
 618:/opt/gcc-arm-none-eabi-9-2020-q2/arm-none-eabi/include/c++/9.3.1/bits/stl_list.h **** 	__catch(...)
 619:/opt/gcc-arm-none-eabi-9-2020-q2/arm-none-eabi/include/c++/9.3.1/bits/stl_list.h **** 	  {
 620:/opt/gcc-arm-none-eabi-9-2020-q2/arm-none-eabi/include/c++/9.3.1/bits/stl_list.h **** 	    _M_put_node(__p);
 621:/opt/gcc-arm-none-eabi-9-2020-q2/arm-none-eabi/include/c++/9.3.1/bits/stl_list.h **** 	    __throw_exception_again;
 622:/opt/gcc-arm-none-eabi-9-2020-q2/arm-none-eabi/include/c++/9.3.1/bits/stl_list.h **** 	  }
 623:/opt/gcc-arm-none-eabi-9-2020-q2/arm-none-eabi/include/c++/9.3.1/bits/stl_list.h **** 	return __p;
 624:/opt/gcc-arm-none-eabi-9-2020-q2/arm-none-eabi/include/c++/9.3.1/bits/stl_list.h ****       }
 625:/opt/gcc-arm-none-eabi-9-2020-q2/arm-none-eabi/include/c++/9.3.1/bits/stl_list.h **** #else
 626:/opt/gcc-arm-none-eabi-9-2020-q2/arm-none-eabi/include/c++/9.3.1/bits/stl_list.h ****       template<typename... _Args>
 627:/opt/gcc-arm-none-eabi-9-2020-q2/arm-none-eabi/include/c++/9.3.1/bits/stl_list.h **** 	_Node*
 628:/opt/gcc-arm-none-eabi-9-2020-q2/arm-none-eabi/include/c++/9.3.1/bits/stl_list.h **** 	_M_create_node(_Args&&... __args)
 629:/opt/gcc-arm-none-eabi-9-2020-q2/arm-none-eabi/include/c++/9.3.1/bits/stl_list.h **** 	{
 630:/opt/gcc-arm-none-eabi-9-2020-q2/arm-none-eabi/include/c++/9.3.1/bits/stl_list.h **** 	  auto __p = this->_M_get_node();
 631:/opt/gcc-arm-none-eabi-9-2020-q2/arm-none-eabi/include/c++/9.3.1/bits/stl_list.h **** 	  auto& __alloc = _M_get_Node_allocator();
 632:/opt/gcc-arm-none-eabi-9-2020-q2/arm-none-eabi/include/c++/9.3.1/bits/stl_list.h **** 	  __allocated_ptr<_Node_alloc_type> __guard{__alloc, __p};
 633:/opt/gcc-arm-none-eabi-9-2020-q2/arm-none-eabi/include/c++/9.3.1/bits/stl_list.h **** 	  _Node_alloc_traits::construct(__alloc, __p->_M_valptr(),
 634:/opt/gcc-arm-none-eabi-9-2020-q2/arm-none-eabi/include/c++/9.3.1/bits/stl_list.h **** 					std::forward<_Args>(__args)...);
 635:/opt/gcc-arm-none-eabi-9-2020-q2/arm-none-eabi/include/c++/9.3.1/bits/stl_list.h **** 	  __guard = nullptr;
 636:/opt/gcc-arm-none-eabi-9-2020-q2/arm-none-eabi/include/c++/9.3.1/bits/stl_list.h **** 	  return __p;
 637:/opt/gcc-arm-none-eabi-9-2020-q2/arm-none-eabi/include/c++/9.3.1/bits/stl_list.h **** 	}
 638:/opt/gcc-arm-none-eabi-9-2020-q2/arm-none-eabi/include/c++/9.3.1/bits/stl_list.h **** #endif
 639:/opt/gcc-arm-none-eabi-9-2020-q2/arm-none-eabi/include/c++/9.3.1/bits/stl_list.h **** 
 640:/opt/gcc-arm-none-eabi-9-2020-q2/arm-none-eabi/include/c++/9.3.1/bits/stl_list.h **** #if _GLIBCXX_USE_CXX11_ABI
 641:/opt/gcc-arm-none-eabi-9-2020-q2/arm-none-eabi/include/c++/9.3.1/bits/stl_list.h ****       static size_t
 642:/opt/gcc-arm-none-eabi-9-2020-q2/arm-none-eabi/include/c++/9.3.1/bits/stl_list.h ****       _S_distance(const_iterator __first, const_iterator __last)
 643:/opt/gcc-arm-none-eabi-9-2020-q2/arm-none-eabi/include/c++/9.3.1/bits/stl_list.h ****       { return std::distance(__first, __last); }
 644:/opt/gcc-arm-none-eabi-9-2020-q2/arm-none-eabi/include/c++/9.3.1/bits/stl_list.h **** 
 645:/opt/gcc-arm-none-eabi-9-2020-q2/arm-none-eabi/include/c++/9.3.1/bits/stl_list.h ****       // return the stored size
 646:/opt/gcc-arm-none-eabi-9-2020-q2/arm-none-eabi/include/c++/9.3.1/bits/stl_list.h ****       size_t
 647:/opt/gcc-arm-none-eabi-9-2020-q2/arm-none-eabi/include/c++/9.3.1/bits/stl_list.h ****       _M_node_count() const
 648:/opt/gcc-arm-none-eabi-9-2020-q2/arm-none-eabi/include/c++/9.3.1/bits/stl_list.h ****       { return this->_M_get_size(); }
 649:/opt/gcc-arm-none-eabi-9-2020-q2/arm-none-eabi/include/c++/9.3.1/bits/stl_list.h **** #else
 650:/opt/gcc-arm-none-eabi-9-2020-q2/arm-none-eabi/include/c++/9.3.1/bits/stl_list.h ****       // dummy implementations used when the size is not stored
 651:/opt/gcc-arm-none-eabi-9-2020-q2/arm-none-eabi/include/c++/9.3.1/bits/stl_list.h ****       static size_t
 652:/opt/gcc-arm-none-eabi-9-2020-q2/arm-none-eabi/include/c++/9.3.1/bits/stl_list.h ****       _S_distance(const_iterator, const_iterator)
 653:/opt/gcc-arm-none-eabi-9-2020-q2/arm-none-eabi/include/c++/9.3.1/bits/stl_list.h ****       { return 0; }
 654:/opt/gcc-arm-none-eabi-9-2020-q2/arm-none-eabi/include/c++/9.3.1/bits/stl_list.h **** 
 655:/opt/gcc-arm-none-eabi-9-2020-q2/arm-none-eabi/include/c++/9.3.1/bits/stl_list.h ****       // count the number of nodes
 656:/opt/gcc-arm-none-eabi-9-2020-q2/arm-none-eabi/include/c++/9.3.1/bits/stl_list.h ****       size_t
 657:/opt/gcc-arm-none-eabi-9-2020-q2/arm-none-eabi/include/c++/9.3.1/bits/stl_list.h ****       _M_node_count() const
 658:/opt/gcc-arm-none-eabi-9-2020-q2/arm-none-eabi/include/c++/9.3.1/bits/stl_list.h ****       { return std::distance(begin(), end()); }
 659:/opt/gcc-arm-none-eabi-9-2020-q2/arm-none-eabi/include/c++/9.3.1/bits/stl_list.h **** #endif
 660:/opt/gcc-arm-none-eabi-9-2020-q2/arm-none-eabi/include/c++/9.3.1/bits/stl_list.h **** 
 661:/opt/gcc-arm-none-eabi-9-2020-q2/arm-none-eabi/include/c++/9.3.1/bits/stl_list.h ****     public:
 662:/opt/gcc-arm-none-eabi-9-2020-q2/arm-none-eabi/include/c++/9.3.1/bits/stl_list.h ****       // [23.2.2.1] construct/copy/destroy
 663:/opt/gcc-arm-none-eabi-9-2020-q2/arm-none-eabi/include/c++/9.3.1/bits/stl_list.h ****       // (assign() and get_allocator() are also listed in this section)
ARM GAS  /tmp/ccQ3xVGk.s 			page 26


 664:/opt/gcc-arm-none-eabi-9-2020-q2/arm-none-eabi/include/c++/9.3.1/bits/stl_list.h **** 
 665:/opt/gcc-arm-none-eabi-9-2020-q2/arm-none-eabi/include/c++/9.3.1/bits/stl_list.h ****       /**
 666:/opt/gcc-arm-none-eabi-9-2020-q2/arm-none-eabi/include/c++/9.3.1/bits/stl_list.h ****        *  @brief  Creates a %list with no elements.
 667:/opt/gcc-arm-none-eabi-9-2020-q2/arm-none-eabi/include/c++/9.3.1/bits/stl_list.h ****        */
 668:/opt/gcc-arm-none-eabi-9-2020-q2/arm-none-eabi/include/c++/9.3.1/bits/stl_list.h **** #if __cplusplus >= 201103L
 669:/opt/gcc-arm-none-eabi-9-2020-q2/arm-none-eabi/include/c++/9.3.1/bits/stl_list.h ****       list() = default;
 670:/opt/gcc-arm-none-eabi-9-2020-q2/arm-none-eabi/include/c++/9.3.1/bits/stl_list.h **** #else
 671:/opt/gcc-arm-none-eabi-9-2020-q2/arm-none-eabi/include/c++/9.3.1/bits/stl_list.h ****       list() { }
 672:/opt/gcc-arm-none-eabi-9-2020-q2/arm-none-eabi/include/c++/9.3.1/bits/stl_list.h **** #endif
 673:/opt/gcc-arm-none-eabi-9-2020-q2/arm-none-eabi/include/c++/9.3.1/bits/stl_list.h **** 
 674:/opt/gcc-arm-none-eabi-9-2020-q2/arm-none-eabi/include/c++/9.3.1/bits/stl_list.h ****       /**
 675:/opt/gcc-arm-none-eabi-9-2020-q2/arm-none-eabi/include/c++/9.3.1/bits/stl_list.h ****        *  @brief  Creates a %list with no elements.
 676:/opt/gcc-arm-none-eabi-9-2020-q2/arm-none-eabi/include/c++/9.3.1/bits/stl_list.h ****        *  @param  __a  An allocator object.
 677:/opt/gcc-arm-none-eabi-9-2020-q2/arm-none-eabi/include/c++/9.3.1/bits/stl_list.h ****        */
 678:/opt/gcc-arm-none-eabi-9-2020-q2/arm-none-eabi/include/c++/9.3.1/bits/stl_list.h ****       explicit
 679:/opt/gcc-arm-none-eabi-9-2020-q2/arm-none-eabi/include/c++/9.3.1/bits/stl_list.h ****       list(const allocator_type& __a) _GLIBCXX_NOEXCEPT
 680:/opt/gcc-arm-none-eabi-9-2020-q2/arm-none-eabi/include/c++/9.3.1/bits/stl_list.h ****       : _Base(_Node_alloc_type(__a)) { }
 681:/opt/gcc-arm-none-eabi-9-2020-q2/arm-none-eabi/include/c++/9.3.1/bits/stl_list.h **** 
 682:/opt/gcc-arm-none-eabi-9-2020-q2/arm-none-eabi/include/c++/9.3.1/bits/stl_list.h **** #if __cplusplus >= 201103L
 683:/opt/gcc-arm-none-eabi-9-2020-q2/arm-none-eabi/include/c++/9.3.1/bits/stl_list.h ****       /**
 684:/opt/gcc-arm-none-eabi-9-2020-q2/arm-none-eabi/include/c++/9.3.1/bits/stl_list.h ****        *  @brief  Creates a %list with default constructed elements.
 685:/opt/gcc-arm-none-eabi-9-2020-q2/arm-none-eabi/include/c++/9.3.1/bits/stl_list.h ****        *  @param  __n  The number of elements to initially create.
 686:/opt/gcc-arm-none-eabi-9-2020-q2/arm-none-eabi/include/c++/9.3.1/bits/stl_list.h ****        *  @param  __a  An allocator object.
 687:/opt/gcc-arm-none-eabi-9-2020-q2/arm-none-eabi/include/c++/9.3.1/bits/stl_list.h ****        *
 688:/opt/gcc-arm-none-eabi-9-2020-q2/arm-none-eabi/include/c++/9.3.1/bits/stl_list.h ****        *  This constructor fills the %list with @a __n default
 689:/opt/gcc-arm-none-eabi-9-2020-q2/arm-none-eabi/include/c++/9.3.1/bits/stl_list.h ****        *  constructed elements.
 690:/opt/gcc-arm-none-eabi-9-2020-q2/arm-none-eabi/include/c++/9.3.1/bits/stl_list.h ****        */
 691:/opt/gcc-arm-none-eabi-9-2020-q2/arm-none-eabi/include/c++/9.3.1/bits/stl_list.h ****       explicit
 692:/opt/gcc-arm-none-eabi-9-2020-q2/arm-none-eabi/include/c++/9.3.1/bits/stl_list.h ****       list(size_type __n, const allocator_type& __a = allocator_type())
 693:/opt/gcc-arm-none-eabi-9-2020-q2/arm-none-eabi/include/c++/9.3.1/bits/stl_list.h ****       : _Base(_Node_alloc_type(__a))
 694:/opt/gcc-arm-none-eabi-9-2020-q2/arm-none-eabi/include/c++/9.3.1/bits/stl_list.h ****       { _M_default_initialize(__n); }
 695:/opt/gcc-arm-none-eabi-9-2020-q2/arm-none-eabi/include/c++/9.3.1/bits/stl_list.h **** 
 696:/opt/gcc-arm-none-eabi-9-2020-q2/arm-none-eabi/include/c++/9.3.1/bits/stl_list.h ****       /**
 697:/opt/gcc-arm-none-eabi-9-2020-q2/arm-none-eabi/include/c++/9.3.1/bits/stl_list.h ****        *  @brief  Creates a %list with copies of an exemplar element.
 698:/opt/gcc-arm-none-eabi-9-2020-q2/arm-none-eabi/include/c++/9.3.1/bits/stl_list.h ****        *  @param  __n  The number of elements to initially create.
 699:/opt/gcc-arm-none-eabi-9-2020-q2/arm-none-eabi/include/c++/9.3.1/bits/stl_list.h ****        *  @param  __value  An element to copy.
 700:/opt/gcc-arm-none-eabi-9-2020-q2/arm-none-eabi/include/c++/9.3.1/bits/stl_list.h ****        *  @param  __a  An allocator object.
 701:/opt/gcc-arm-none-eabi-9-2020-q2/arm-none-eabi/include/c++/9.3.1/bits/stl_list.h ****        *
 702:/opt/gcc-arm-none-eabi-9-2020-q2/arm-none-eabi/include/c++/9.3.1/bits/stl_list.h ****        *  This constructor fills the %list with @a __n copies of @a __value.
 703:/opt/gcc-arm-none-eabi-9-2020-q2/arm-none-eabi/include/c++/9.3.1/bits/stl_list.h ****        */
 704:/opt/gcc-arm-none-eabi-9-2020-q2/arm-none-eabi/include/c++/9.3.1/bits/stl_list.h ****       list(size_type __n, const value_type& __value,
 705:/opt/gcc-arm-none-eabi-9-2020-q2/arm-none-eabi/include/c++/9.3.1/bits/stl_list.h **** 	   const allocator_type& __a = allocator_type())
 706:/opt/gcc-arm-none-eabi-9-2020-q2/arm-none-eabi/include/c++/9.3.1/bits/stl_list.h ****       : _Base(_Node_alloc_type(__a))
 707:/opt/gcc-arm-none-eabi-9-2020-q2/arm-none-eabi/include/c++/9.3.1/bits/stl_list.h ****       { _M_fill_initialize(__n, __value); }
 708:/opt/gcc-arm-none-eabi-9-2020-q2/arm-none-eabi/include/c++/9.3.1/bits/stl_list.h **** #else
 709:/opt/gcc-arm-none-eabi-9-2020-q2/arm-none-eabi/include/c++/9.3.1/bits/stl_list.h ****       /**
 710:/opt/gcc-arm-none-eabi-9-2020-q2/arm-none-eabi/include/c++/9.3.1/bits/stl_list.h ****        *  @brief  Creates a %list with copies of an exemplar element.
 711:/opt/gcc-arm-none-eabi-9-2020-q2/arm-none-eabi/include/c++/9.3.1/bits/stl_list.h ****        *  @param  __n  The number of elements to initially create.
 712:/opt/gcc-arm-none-eabi-9-2020-q2/arm-none-eabi/include/c++/9.3.1/bits/stl_list.h ****        *  @param  __value  An element to copy.
 713:/opt/gcc-arm-none-eabi-9-2020-q2/arm-none-eabi/include/c++/9.3.1/bits/stl_list.h ****        *  @param  __a  An allocator object.
 714:/opt/gcc-arm-none-eabi-9-2020-q2/arm-none-eabi/include/c++/9.3.1/bits/stl_list.h ****        *
 715:/opt/gcc-arm-none-eabi-9-2020-q2/arm-none-eabi/include/c++/9.3.1/bits/stl_list.h ****        *  This constructor fills the %list with @a __n copies of @a __value.
 716:/opt/gcc-arm-none-eabi-9-2020-q2/arm-none-eabi/include/c++/9.3.1/bits/stl_list.h ****        */
 717:/opt/gcc-arm-none-eabi-9-2020-q2/arm-none-eabi/include/c++/9.3.1/bits/stl_list.h ****       explicit
 718:/opt/gcc-arm-none-eabi-9-2020-q2/arm-none-eabi/include/c++/9.3.1/bits/stl_list.h ****       list(size_type __n, const value_type& __value = value_type(),
 719:/opt/gcc-arm-none-eabi-9-2020-q2/arm-none-eabi/include/c++/9.3.1/bits/stl_list.h **** 	   const allocator_type& __a = allocator_type())
 720:/opt/gcc-arm-none-eabi-9-2020-q2/arm-none-eabi/include/c++/9.3.1/bits/stl_list.h ****       : _Base(_Node_alloc_type(__a))
ARM GAS  /tmp/ccQ3xVGk.s 			page 27


 721:/opt/gcc-arm-none-eabi-9-2020-q2/arm-none-eabi/include/c++/9.3.1/bits/stl_list.h ****       { _M_fill_initialize(__n, __value); }
 722:/opt/gcc-arm-none-eabi-9-2020-q2/arm-none-eabi/include/c++/9.3.1/bits/stl_list.h **** #endif
 723:/opt/gcc-arm-none-eabi-9-2020-q2/arm-none-eabi/include/c++/9.3.1/bits/stl_list.h **** 
 724:/opt/gcc-arm-none-eabi-9-2020-q2/arm-none-eabi/include/c++/9.3.1/bits/stl_list.h ****       /**
 725:/opt/gcc-arm-none-eabi-9-2020-q2/arm-none-eabi/include/c++/9.3.1/bits/stl_list.h ****        *  @brief  %List copy constructor.
 726:/opt/gcc-arm-none-eabi-9-2020-q2/arm-none-eabi/include/c++/9.3.1/bits/stl_list.h ****        *  @param  __x  A %list of identical element and allocator types.
 727:/opt/gcc-arm-none-eabi-9-2020-q2/arm-none-eabi/include/c++/9.3.1/bits/stl_list.h ****        *
 728:/opt/gcc-arm-none-eabi-9-2020-q2/arm-none-eabi/include/c++/9.3.1/bits/stl_list.h ****        *  The newly-created %list uses a copy of the allocation object used
 729:/opt/gcc-arm-none-eabi-9-2020-q2/arm-none-eabi/include/c++/9.3.1/bits/stl_list.h ****        *  by @a __x (unless the allocator traits dictate a different object).
 730:/opt/gcc-arm-none-eabi-9-2020-q2/arm-none-eabi/include/c++/9.3.1/bits/stl_list.h ****        */
 731:/opt/gcc-arm-none-eabi-9-2020-q2/arm-none-eabi/include/c++/9.3.1/bits/stl_list.h ****       list(const list& __x)
 732:/opt/gcc-arm-none-eabi-9-2020-q2/arm-none-eabi/include/c++/9.3.1/bits/stl_list.h ****       : _Base(_Node_alloc_traits::
 733:/opt/gcc-arm-none-eabi-9-2020-q2/arm-none-eabi/include/c++/9.3.1/bits/stl_list.h **** 	      _S_select_on_copy(__x._M_get_Node_allocator()))
 734:/opt/gcc-arm-none-eabi-9-2020-q2/arm-none-eabi/include/c++/9.3.1/bits/stl_list.h ****       { _M_initialize_dispatch(__x.begin(), __x.end(), __false_type()); }
 735:/opt/gcc-arm-none-eabi-9-2020-q2/arm-none-eabi/include/c++/9.3.1/bits/stl_list.h **** 
 736:/opt/gcc-arm-none-eabi-9-2020-q2/arm-none-eabi/include/c++/9.3.1/bits/stl_list.h **** #if __cplusplus >= 201103L
 737:/opt/gcc-arm-none-eabi-9-2020-q2/arm-none-eabi/include/c++/9.3.1/bits/stl_list.h ****       /**
 738:/opt/gcc-arm-none-eabi-9-2020-q2/arm-none-eabi/include/c++/9.3.1/bits/stl_list.h ****        *  @brief  %List move constructor.
 739:/opt/gcc-arm-none-eabi-9-2020-q2/arm-none-eabi/include/c++/9.3.1/bits/stl_list.h ****        *
 740:/opt/gcc-arm-none-eabi-9-2020-q2/arm-none-eabi/include/c++/9.3.1/bits/stl_list.h ****        *  The newly-created %list contains the exact contents of the moved
 741:/opt/gcc-arm-none-eabi-9-2020-q2/arm-none-eabi/include/c++/9.3.1/bits/stl_list.h ****        *  instance. The contents of the moved instance are a valid, but
 742:/opt/gcc-arm-none-eabi-9-2020-q2/arm-none-eabi/include/c++/9.3.1/bits/stl_list.h ****        *  unspecified %list.
 743:/opt/gcc-arm-none-eabi-9-2020-q2/arm-none-eabi/include/c++/9.3.1/bits/stl_list.h ****        */
 744:/opt/gcc-arm-none-eabi-9-2020-q2/arm-none-eabi/include/c++/9.3.1/bits/stl_list.h ****       list(list&&) = default;
 745:/opt/gcc-arm-none-eabi-9-2020-q2/arm-none-eabi/include/c++/9.3.1/bits/stl_list.h **** 
 746:/opt/gcc-arm-none-eabi-9-2020-q2/arm-none-eabi/include/c++/9.3.1/bits/stl_list.h ****       /**
 747:/opt/gcc-arm-none-eabi-9-2020-q2/arm-none-eabi/include/c++/9.3.1/bits/stl_list.h ****        *  @brief  Builds a %list from an initializer_list
 748:/opt/gcc-arm-none-eabi-9-2020-q2/arm-none-eabi/include/c++/9.3.1/bits/stl_list.h ****        *  @param  __l  An initializer_list of value_type.
 749:/opt/gcc-arm-none-eabi-9-2020-q2/arm-none-eabi/include/c++/9.3.1/bits/stl_list.h ****        *  @param  __a  An allocator object.
 750:/opt/gcc-arm-none-eabi-9-2020-q2/arm-none-eabi/include/c++/9.3.1/bits/stl_list.h ****        *
 751:/opt/gcc-arm-none-eabi-9-2020-q2/arm-none-eabi/include/c++/9.3.1/bits/stl_list.h ****        *  Create a %list consisting of copies of the elements in the
 752:/opt/gcc-arm-none-eabi-9-2020-q2/arm-none-eabi/include/c++/9.3.1/bits/stl_list.h ****        *  initializer_list @a __l.  This is linear in __l.size().
 753:/opt/gcc-arm-none-eabi-9-2020-q2/arm-none-eabi/include/c++/9.3.1/bits/stl_list.h ****        */
 754:/opt/gcc-arm-none-eabi-9-2020-q2/arm-none-eabi/include/c++/9.3.1/bits/stl_list.h ****       list(initializer_list<value_type> __l,
 755:/opt/gcc-arm-none-eabi-9-2020-q2/arm-none-eabi/include/c++/9.3.1/bits/stl_list.h **** 	   const allocator_type& __a = allocator_type())
 756:/opt/gcc-arm-none-eabi-9-2020-q2/arm-none-eabi/include/c++/9.3.1/bits/stl_list.h ****       : _Base(_Node_alloc_type(__a))
 757:/opt/gcc-arm-none-eabi-9-2020-q2/arm-none-eabi/include/c++/9.3.1/bits/stl_list.h ****       { _M_initialize_dispatch(__l.begin(), __l.end(), __false_type()); }
 758:/opt/gcc-arm-none-eabi-9-2020-q2/arm-none-eabi/include/c++/9.3.1/bits/stl_list.h **** 
 759:/opt/gcc-arm-none-eabi-9-2020-q2/arm-none-eabi/include/c++/9.3.1/bits/stl_list.h ****       list(const list& __x, const allocator_type& __a)
 760:/opt/gcc-arm-none-eabi-9-2020-q2/arm-none-eabi/include/c++/9.3.1/bits/stl_list.h ****       : _Base(_Node_alloc_type(__a))
 761:/opt/gcc-arm-none-eabi-9-2020-q2/arm-none-eabi/include/c++/9.3.1/bits/stl_list.h ****       { _M_initialize_dispatch(__x.begin(), __x.end(), __false_type()); }
 762:/opt/gcc-arm-none-eabi-9-2020-q2/arm-none-eabi/include/c++/9.3.1/bits/stl_list.h **** 
 763:/opt/gcc-arm-none-eabi-9-2020-q2/arm-none-eabi/include/c++/9.3.1/bits/stl_list.h ****     private:
 764:/opt/gcc-arm-none-eabi-9-2020-q2/arm-none-eabi/include/c++/9.3.1/bits/stl_list.h ****       list(list&& __x, const allocator_type& __a, true_type) noexcept
 765:/opt/gcc-arm-none-eabi-9-2020-q2/arm-none-eabi/include/c++/9.3.1/bits/stl_list.h ****       : _Base(_Node_alloc_type(__a), std::move(__x))
 766:/opt/gcc-arm-none-eabi-9-2020-q2/arm-none-eabi/include/c++/9.3.1/bits/stl_list.h ****       { }
 767:/opt/gcc-arm-none-eabi-9-2020-q2/arm-none-eabi/include/c++/9.3.1/bits/stl_list.h **** 
 768:/opt/gcc-arm-none-eabi-9-2020-q2/arm-none-eabi/include/c++/9.3.1/bits/stl_list.h ****       list(list&& __x, const allocator_type& __a, false_type)
 769:/opt/gcc-arm-none-eabi-9-2020-q2/arm-none-eabi/include/c++/9.3.1/bits/stl_list.h ****       : _Base(_Node_alloc_type(__a))
 770:/opt/gcc-arm-none-eabi-9-2020-q2/arm-none-eabi/include/c++/9.3.1/bits/stl_list.h ****       {
 771:/opt/gcc-arm-none-eabi-9-2020-q2/arm-none-eabi/include/c++/9.3.1/bits/stl_list.h **** 	if (__x._M_get_Node_allocator() == this->_M_get_Node_allocator())
 772:/opt/gcc-arm-none-eabi-9-2020-q2/arm-none-eabi/include/c++/9.3.1/bits/stl_list.h **** 	  this->_M_move_nodes(std::move(__x));
 773:/opt/gcc-arm-none-eabi-9-2020-q2/arm-none-eabi/include/c++/9.3.1/bits/stl_list.h **** 	else
 774:/opt/gcc-arm-none-eabi-9-2020-q2/arm-none-eabi/include/c++/9.3.1/bits/stl_list.h **** 	  insert(begin(), std::__make_move_if_noexcept_iterator(__x.begin()),
 775:/opt/gcc-arm-none-eabi-9-2020-q2/arm-none-eabi/include/c++/9.3.1/bits/stl_list.h **** 			  std::__make_move_if_noexcept_iterator(__x.end()));
 776:/opt/gcc-arm-none-eabi-9-2020-q2/arm-none-eabi/include/c++/9.3.1/bits/stl_list.h ****       }
 777:/opt/gcc-arm-none-eabi-9-2020-q2/arm-none-eabi/include/c++/9.3.1/bits/stl_list.h **** 
ARM GAS  /tmp/ccQ3xVGk.s 			page 28


 778:/opt/gcc-arm-none-eabi-9-2020-q2/arm-none-eabi/include/c++/9.3.1/bits/stl_list.h ****     public:
 779:/opt/gcc-arm-none-eabi-9-2020-q2/arm-none-eabi/include/c++/9.3.1/bits/stl_list.h ****       list(list&& __x, const allocator_type& __a)
 780:/opt/gcc-arm-none-eabi-9-2020-q2/arm-none-eabi/include/c++/9.3.1/bits/stl_list.h ****       noexcept(_Node_alloc_traits::_S_always_equal())
 781:/opt/gcc-arm-none-eabi-9-2020-q2/arm-none-eabi/include/c++/9.3.1/bits/stl_list.h ****       : list(std::move(__x), __a,
 782:/opt/gcc-arm-none-eabi-9-2020-q2/arm-none-eabi/include/c++/9.3.1/bits/stl_list.h **** 	     typename _Node_alloc_traits::is_always_equal{})
 783:/opt/gcc-arm-none-eabi-9-2020-q2/arm-none-eabi/include/c++/9.3.1/bits/stl_list.h ****       { }
 784:/opt/gcc-arm-none-eabi-9-2020-q2/arm-none-eabi/include/c++/9.3.1/bits/stl_list.h **** #endif
 785:/opt/gcc-arm-none-eabi-9-2020-q2/arm-none-eabi/include/c++/9.3.1/bits/stl_list.h **** 
 786:/opt/gcc-arm-none-eabi-9-2020-q2/arm-none-eabi/include/c++/9.3.1/bits/stl_list.h ****       /**
 787:/opt/gcc-arm-none-eabi-9-2020-q2/arm-none-eabi/include/c++/9.3.1/bits/stl_list.h ****        *  @brief  Builds a %list from a range.
 788:/opt/gcc-arm-none-eabi-9-2020-q2/arm-none-eabi/include/c++/9.3.1/bits/stl_list.h ****        *  @param  __first  An input iterator.
 789:/opt/gcc-arm-none-eabi-9-2020-q2/arm-none-eabi/include/c++/9.3.1/bits/stl_list.h ****        *  @param  __last  An input iterator.
 790:/opt/gcc-arm-none-eabi-9-2020-q2/arm-none-eabi/include/c++/9.3.1/bits/stl_list.h ****        *  @param  __a  An allocator object.
 791:/opt/gcc-arm-none-eabi-9-2020-q2/arm-none-eabi/include/c++/9.3.1/bits/stl_list.h ****        *
 792:/opt/gcc-arm-none-eabi-9-2020-q2/arm-none-eabi/include/c++/9.3.1/bits/stl_list.h ****        *  Create a %list consisting of copies of the elements from
 793:/opt/gcc-arm-none-eabi-9-2020-q2/arm-none-eabi/include/c++/9.3.1/bits/stl_list.h ****        *  [@a __first,@a __last).  This is linear in N (where N is
 794:/opt/gcc-arm-none-eabi-9-2020-q2/arm-none-eabi/include/c++/9.3.1/bits/stl_list.h ****        *  distance(@a __first,@a __last)).
 795:/opt/gcc-arm-none-eabi-9-2020-q2/arm-none-eabi/include/c++/9.3.1/bits/stl_list.h ****        */
 796:/opt/gcc-arm-none-eabi-9-2020-q2/arm-none-eabi/include/c++/9.3.1/bits/stl_list.h **** #if __cplusplus >= 201103L
 797:/opt/gcc-arm-none-eabi-9-2020-q2/arm-none-eabi/include/c++/9.3.1/bits/stl_list.h ****       template<typename _InputIterator,
 798:/opt/gcc-arm-none-eabi-9-2020-q2/arm-none-eabi/include/c++/9.3.1/bits/stl_list.h **** 	       typename = std::_RequireInputIter<_InputIterator>>
 799:/opt/gcc-arm-none-eabi-9-2020-q2/arm-none-eabi/include/c++/9.3.1/bits/stl_list.h **** 	list(_InputIterator __first, _InputIterator __last,
 800:/opt/gcc-arm-none-eabi-9-2020-q2/arm-none-eabi/include/c++/9.3.1/bits/stl_list.h **** 	     const allocator_type& __a = allocator_type())
 801:/opt/gcc-arm-none-eabi-9-2020-q2/arm-none-eabi/include/c++/9.3.1/bits/stl_list.h **** 	: _Base(_Node_alloc_type(__a))
 802:/opt/gcc-arm-none-eabi-9-2020-q2/arm-none-eabi/include/c++/9.3.1/bits/stl_list.h **** 	{ _M_initialize_dispatch(__first, __last, __false_type()); }
 803:/opt/gcc-arm-none-eabi-9-2020-q2/arm-none-eabi/include/c++/9.3.1/bits/stl_list.h **** #else
 804:/opt/gcc-arm-none-eabi-9-2020-q2/arm-none-eabi/include/c++/9.3.1/bits/stl_list.h ****       template<typename _InputIterator>
 805:/opt/gcc-arm-none-eabi-9-2020-q2/arm-none-eabi/include/c++/9.3.1/bits/stl_list.h **** 	list(_InputIterator __first, _InputIterator __last,
 806:/opt/gcc-arm-none-eabi-9-2020-q2/arm-none-eabi/include/c++/9.3.1/bits/stl_list.h **** 	     const allocator_type& __a = allocator_type())
 807:/opt/gcc-arm-none-eabi-9-2020-q2/arm-none-eabi/include/c++/9.3.1/bits/stl_list.h **** 	: _Base(_Node_alloc_type(__a))
 808:/opt/gcc-arm-none-eabi-9-2020-q2/arm-none-eabi/include/c++/9.3.1/bits/stl_list.h **** 	{
 809:/opt/gcc-arm-none-eabi-9-2020-q2/arm-none-eabi/include/c++/9.3.1/bits/stl_list.h **** 	  // Check whether it's an integral type.  If so, it's not an iterator.
 810:/opt/gcc-arm-none-eabi-9-2020-q2/arm-none-eabi/include/c++/9.3.1/bits/stl_list.h **** 	  typedef typename std::__is_integer<_InputIterator>::__type _Integral;
 811:/opt/gcc-arm-none-eabi-9-2020-q2/arm-none-eabi/include/c++/9.3.1/bits/stl_list.h **** 	  _M_initialize_dispatch(__first, __last, _Integral());
 812:/opt/gcc-arm-none-eabi-9-2020-q2/arm-none-eabi/include/c++/9.3.1/bits/stl_list.h **** 	}
 813:/opt/gcc-arm-none-eabi-9-2020-q2/arm-none-eabi/include/c++/9.3.1/bits/stl_list.h **** #endif
 814:/opt/gcc-arm-none-eabi-9-2020-q2/arm-none-eabi/include/c++/9.3.1/bits/stl_list.h **** 
 815:/opt/gcc-arm-none-eabi-9-2020-q2/arm-none-eabi/include/c++/9.3.1/bits/stl_list.h **** #if __cplusplus >= 201103L
 816:/opt/gcc-arm-none-eabi-9-2020-q2/arm-none-eabi/include/c++/9.3.1/bits/stl_list.h ****       /**
 817:/opt/gcc-arm-none-eabi-9-2020-q2/arm-none-eabi/include/c++/9.3.1/bits/stl_list.h ****        *  No explicit dtor needed as the _Base dtor takes care of
 818:/opt/gcc-arm-none-eabi-9-2020-q2/arm-none-eabi/include/c++/9.3.1/bits/stl_list.h ****        *  things.  The _Base dtor only erases the elements, and note
 819:/opt/gcc-arm-none-eabi-9-2020-q2/arm-none-eabi/include/c++/9.3.1/bits/stl_list.h ****        *  that if the elements themselves are pointers, the pointed-to
 820:/opt/gcc-arm-none-eabi-9-2020-q2/arm-none-eabi/include/c++/9.3.1/bits/stl_list.h ****        *  memory is not touched in any way.  Managing the pointer is
 821:/opt/gcc-arm-none-eabi-9-2020-q2/arm-none-eabi/include/c++/9.3.1/bits/stl_list.h ****        *  the user's responsibility.
 822:/opt/gcc-arm-none-eabi-9-2020-q2/arm-none-eabi/include/c++/9.3.1/bits/stl_list.h ****        */
 823:/opt/gcc-arm-none-eabi-9-2020-q2/arm-none-eabi/include/c++/9.3.1/bits/stl_list.h ****       ~list() = default;
 824:/opt/gcc-arm-none-eabi-9-2020-q2/arm-none-eabi/include/c++/9.3.1/bits/stl_list.h **** #endif
 825:/opt/gcc-arm-none-eabi-9-2020-q2/arm-none-eabi/include/c++/9.3.1/bits/stl_list.h **** 
 826:/opt/gcc-arm-none-eabi-9-2020-q2/arm-none-eabi/include/c++/9.3.1/bits/stl_list.h ****       /**
 827:/opt/gcc-arm-none-eabi-9-2020-q2/arm-none-eabi/include/c++/9.3.1/bits/stl_list.h ****        *  @brief  %List assignment operator.
 828:/opt/gcc-arm-none-eabi-9-2020-q2/arm-none-eabi/include/c++/9.3.1/bits/stl_list.h ****        *  @param  __x  A %list of identical element and allocator types.
 829:/opt/gcc-arm-none-eabi-9-2020-q2/arm-none-eabi/include/c++/9.3.1/bits/stl_list.h ****        *
 830:/opt/gcc-arm-none-eabi-9-2020-q2/arm-none-eabi/include/c++/9.3.1/bits/stl_list.h ****        *  All the elements of @a __x are copied.
 831:/opt/gcc-arm-none-eabi-9-2020-q2/arm-none-eabi/include/c++/9.3.1/bits/stl_list.h ****        *
 832:/opt/gcc-arm-none-eabi-9-2020-q2/arm-none-eabi/include/c++/9.3.1/bits/stl_list.h ****        *  Whether the allocator is copied depends on the allocator traits.
 833:/opt/gcc-arm-none-eabi-9-2020-q2/arm-none-eabi/include/c++/9.3.1/bits/stl_list.h ****        */
 834:/opt/gcc-arm-none-eabi-9-2020-q2/arm-none-eabi/include/c++/9.3.1/bits/stl_list.h ****       list&
ARM GAS  /tmp/ccQ3xVGk.s 			page 29


 835:/opt/gcc-arm-none-eabi-9-2020-q2/arm-none-eabi/include/c++/9.3.1/bits/stl_list.h ****       operator=(const list& __x);
 836:/opt/gcc-arm-none-eabi-9-2020-q2/arm-none-eabi/include/c++/9.3.1/bits/stl_list.h **** 
 837:/opt/gcc-arm-none-eabi-9-2020-q2/arm-none-eabi/include/c++/9.3.1/bits/stl_list.h **** #if __cplusplus >= 201103L
 838:/opt/gcc-arm-none-eabi-9-2020-q2/arm-none-eabi/include/c++/9.3.1/bits/stl_list.h ****       /**
 839:/opt/gcc-arm-none-eabi-9-2020-q2/arm-none-eabi/include/c++/9.3.1/bits/stl_list.h ****        *  @brief  %List move assignment operator.
 840:/opt/gcc-arm-none-eabi-9-2020-q2/arm-none-eabi/include/c++/9.3.1/bits/stl_list.h ****        *  @param  __x  A %list of identical element and allocator types.
 841:/opt/gcc-arm-none-eabi-9-2020-q2/arm-none-eabi/include/c++/9.3.1/bits/stl_list.h ****        *
 842:/opt/gcc-arm-none-eabi-9-2020-q2/arm-none-eabi/include/c++/9.3.1/bits/stl_list.h ****        *  The contents of @a __x are moved into this %list (without copying).
 843:/opt/gcc-arm-none-eabi-9-2020-q2/arm-none-eabi/include/c++/9.3.1/bits/stl_list.h ****        *
 844:/opt/gcc-arm-none-eabi-9-2020-q2/arm-none-eabi/include/c++/9.3.1/bits/stl_list.h ****        *  Afterwards @a __x is a valid, but unspecified %list
 845:/opt/gcc-arm-none-eabi-9-2020-q2/arm-none-eabi/include/c++/9.3.1/bits/stl_list.h ****        *
 846:/opt/gcc-arm-none-eabi-9-2020-q2/arm-none-eabi/include/c++/9.3.1/bits/stl_list.h ****        *  Whether the allocator is moved depends on the allocator traits.
 847:/opt/gcc-arm-none-eabi-9-2020-q2/arm-none-eabi/include/c++/9.3.1/bits/stl_list.h ****        */
 848:/opt/gcc-arm-none-eabi-9-2020-q2/arm-none-eabi/include/c++/9.3.1/bits/stl_list.h ****       list&
 849:/opt/gcc-arm-none-eabi-9-2020-q2/arm-none-eabi/include/c++/9.3.1/bits/stl_list.h ****       operator=(list&& __x)
 850:/opt/gcc-arm-none-eabi-9-2020-q2/arm-none-eabi/include/c++/9.3.1/bits/stl_list.h ****       noexcept(_Node_alloc_traits::_S_nothrow_move())
 851:/opt/gcc-arm-none-eabi-9-2020-q2/arm-none-eabi/include/c++/9.3.1/bits/stl_list.h ****       {
 852:/opt/gcc-arm-none-eabi-9-2020-q2/arm-none-eabi/include/c++/9.3.1/bits/stl_list.h **** 	constexpr bool __move_storage =
 853:/opt/gcc-arm-none-eabi-9-2020-q2/arm-none-eabi/include/c++/9.3.1/bits/stl_list.h **** 	  _Node_alloc_traits::_S_propagate_on_move_assign()
 854:/opt/gcc-arm-none-eabi-9-2020-q2/arm-none-eabi/include/c++/9.3.1/bits/stl_list.h **** 	  || _Node_alloc_traits::_S_always_equal();
 855:/opt/gcc-arm-none-eabi-9-2020-q2/arm-none-eabi/include/c++/9.3.1/bits/stl_list.h **** 	_M_move_assign(std::move(__x), __bool_constant<__move_storage>());
 856:/opt/gcc-arm-none-eabi-9-2020-q2/arm-none-eabi/include/c++/9.3.1/bits/stl_list.h **** 	return *this;
 857:/opt/gcc-arm-none-eabi-9-2020-q2/arm-none-eabi/include/c++/9.3.1/bits/stl_list.h ****       }
 858:/opt/gcc-arm-none-eabi-9-2020-q2/arm-none-eabi/include/c++/9.3.1/bits/stl_list.h **** 
 859:/opt/gcc-arm-none-eabi-9-2020-q2/arm-none-eabi/include/c++/9.3.1/bits/stl_list.h ****       /**
 860:/opt/gcc-arm-none-eabi-9-2020-q2/arm-none-eabi/include/c++/9.3.1/bits/stl_list.h ****        *  @brief  %List initializer list assignment operator.
 861:/opt/gcc-arm-none-eabi-9-2020-q2/arm-none-eabi/include/c++/9.3.1/bits/stl_list.h ****        *  @param  __l  An initializer_list of value_type.
 862:/opt/gcc-arm-none-eabi-9-2020-q2/arm-none-eabi/include/c++/9.3.1/bits/stl_list.h ****        *
 863:/opt/gcc-arm-none-eabi-9-2020-q2/arm-none-eabi/include/c++/9.3.1/bits/stl_list.h ****        *  Replace the contents of the %list with copies of the elements
 864:/opt/gcc-arm-none-eabi-9-2020-q2/arm-none-eabi/include/c++/9.3.1/bits/stl_list.h ****        *  in the initializer_list @a __l.  This is linear in l.size().
 865:/opt/gcc-arm-none-eabi-9-2020-q2/arm-none-eabi/include/c++/9.3.1/bits/stl_list.h ****        */
 866:/opt/gcc-arm-none-eabi-9-2020-q2/arm-none-eabi/include/c++/9.3.1/bits/stl_list.h ****       list&
 867:/opt/gcc-arm-none-eabi-9-2020-q2/arm-none-eabi/include/c++/9.3.1/bits/stl_list.h ****       operator=(initializer_list<value_type> __l)
 868:/opt/gcc-arm-none-eabi-9-2020-q2/arm-none-eabi/include/c++/9.3.1/bits/stl_list.h ****       {
 869:/opt/gcc-arm-none-eabi-9-2020-q2/arm-none-eabi/include/c++/9.3.1/bits/stl_list.h **** 	this->assign(__l.begin(), __l.end());
 870:/opt/gcc-arm-none-eabi-9-2020-q2/arm-none-eabi/include/c++/9.3.1/bits/stl_list.h **** 	return *this;
 871:/opt/gcc-arm-none-eabi-9-2020-q2/arm-none-eabi/include/c++/9.3.1/bits/stl_list.h ****       }
 872:/opt/gcc-arm-none-eabi-9-2020-q2/arm-none-eabi/include/c++/9.3.1/bits/stl_list.h **** #endif
 873:/opt/gcc-arm-none-eabi-9-2020-q2/arm-none-eabi/include/c++/9.3.1/bits/stl_list.h **** 
 874:/opt/gcc-arm-none-eabi-9-2020-q2/arm-none-eabi/include/c++/9.3.1/bits/stl_list.h ****       /**
 875:/opt/gcc-arm-none-eabi-9-2020-q2/arm-none-eabi/include/c++/9.3.1/bits/stl_list.h ****        *  @brief  Assigns a given value to a %list.
 876:/opt/gcc-arm-none-eabi-9-2020-q2/arm-none-eabi/include/c++/9.3.1/bits/stl_list.h ****        *  @param  __n  Number of elements to be assigned.
 877:/opt/gcc-arm-none-eabi-9-2020-q2/arm-none-eabi/include/c++/9.3.1/bits/stl_list.h ****        *  @param  __val  Value to be assigned.
 878:/opt/gcc-arm-none-eabi-9-2020-q2/arm-none-eabi/include/c++/9.3.1/bits/stl_list.h ****        *
 879:/opt/gcc-arm-none-eabi-9-2020-q2/arm-none-eabi/include/c++/9.3.1/bits/stl_list.h ****        *  This function fills a %list with @a __n copies of the given
 880:/opt/gcc-arm-none-eabi-9-2020-q2/arm-none-eabi/include/c++/9.3.1/bits/stl_list.h ****        *  value.  Note that the assignment completely changes the %list
 881:/opt/gcc-arm-none-eabi-9-2020-q2/arm-none-eabi/include/c++/9.3.1/bits/stl_list.h ****        *  and that the resulting %list's size is the same as the number
 882:/opt/gcc-arm-none-eabi-9-2020-q2/arm-none-eabi/include/c++/9.3.1/bits/stl_list.h ****        *  of elements assigned.
 883:/opt/gcc-arm-none-eabi-9-2020-q2/arm-none-eabi/include/c++/9.3.1/bits/stl_list.h ****        */
 884:/opt/gcc-arm-none-eabi-9-2020-q2/arm-none-eabi/include/c++/9.3.1/bits/stl_list.h ****       void
 885:/opt/gcc-arm-none-eabi-9-2020-q2/arm-none-eabi/include/c++/9.3.1/bits/stl_list.h ****       assign(size_type __n, const value_type& __val)
 886:/opt/gcc-arm-none-eabi-9-2020-q2/arm-none-eabi/include/c++/9.3.1/bits/stl_list.h ****       { _M_fill_assign(__n, __val); }
 887:/opt/gcc-arm-none-eabi-9-2020-q2/arm-none-eabi/include/c++/9.3.1/bits/stl_list.h **** 
 888:/opt/gcc-arm-none-eabi-9-2020-q2/arm-none-eabi/include/c++/9.3.1/bits/stl_list.h ****       /**
 889:/opt/gcc-arm-none-eabi-9-2020-q2/arm-none-eabi/include/c++/9.3.1/bits/stl_list.h ****        *  @brief  Assigns a range to a %list.
 890:/opt/gcc-arm-none-eabi-9-2020-q2/arm-none-eabi/include/c++/9.3.1/bits/stl_list.h ****        *  @param  __first  An input iterator.
 891:/opt/gcc-arm-none-eabi-9-2020-q2/arm-none-eabi/include/c++/9.3.1/bits/stl_list.h ****        *  @param  __last   An input iterator.
ARM GAS  /tmp/ccQ3xVGk.s 			page 30


 892:/opt/gcc-arm-none-eabi-9-2020-q2/arm-none-eabi/include/c++/9.3.1/bits/stl_list.h ****        *
 893:/opt/gcc-arm-none-eabi-9-2020-q2/arm-none-eabi/include/c++/9.3.1/bits/stl_list.h ****        *  This function fills a %list with copies of the elements in the
 894:/opt/gcc-arm-none-eabi-9-2020-q2/arm-none-eabi/include/c++/9.3.1/bits/stl_list.h ****        *  range [@a __first,@a __last).
 895:/opt/gcc-arm-none-eabi-9-2020-q2/arm-none-eabi/include/c++/9.3.1/bits/stl_list.h ****        *
 896:/opt/gcc-arm-none-eabi-9-2020-q2/arm-none-eabi/include/c++/9.3.1/bits/stl_list.h ****        *  Note that the assignment completely changes the %list and
 897:/opt/gcc-arm-none-eabi-9-2020-q2/arm-none-eabi/include/c++/9.3.1/bits/stl_list.h ****        *  that the resulting %list's size is the same as the number of
 898:/opt/gcc-arm-none-eabi-9-2020-q2/arm-none-eabi/include/c++/9.3.1/bits/stl_list.h ****        *  elements assigned.
 899:/opt/gcc-arm-none-eabi-9-2020-q2/arm-none-eabi/include/c++/9.3.1/bits/stl_list.h ****        */
 900:/opt/gcc-arm-none-eabi-9-2020-q2/arm-none-eabi/include/c++/9.3.1/bits/stl_list.h **** #if __cplusplus >= 201103L
 901:/opt/gcc-arm-none-eabi-9-2020-q2/arm-none-eabi/include/c++/9.3.1/bits/stl_list.h ****       template<typename _InputIterator,
 902:/opt/gcc-arm-none-eabi-9-2020-q2/arm-none-eabi/include/c++/9.3.1/bits/stl_list.h **** 	       typename = std::_RequireInputIter<_InputIterator>>
 903:/opt/gcc-arm-none-eabi-9-2020-q2/arm-none-eabi/include/c++/9.3.1/bits/stl_list.h **** 	void
 904:/opt/gcc-arm-none-eabi-9-2020-q2/arm-none-eabi/include/c++/9.3.1/bits/stl_list.h **** 	assign(_InputIterator __first, _InputIterator __last)
 905:/opt/gcc-arm-none-eabi-9-2020-q2/arm-none-eabi/include/c++/9.3.1/bits/stl_list.h **** 	{ _M_assign_dispatch(__first, __last, __false_type()); }
 906:/opt/gcc-arm-none-eabi-9-2020-q2/arm-none-eabi/include/c++/9.3.1/bits/stl_list.h **** #else
 907:/opt/gcc-arm-none-eabi-9-2020-q2/arm-none-eabi/include/c++/9.3.1/bits/stl_list.h ****       template<typename _InputIterator>
 908:/opt/gcc-arm-none-eabi-9-2020-q2/arm-none-eabi/include/c++/9.3.1/bits/stl_list.h **** 	void
 909:/opt/gcc-arm-none-eabi-9-2020-q2/arm-none-eabi/include/c++/9.3.1/bits/stl_list.h **** 	assign(_InputIterator __first, _InputIterator __last)
 910:/opt/gcc-arm-none-eabi-9-2020-q2/arm-none-eabi/include/c++/9.3.1/bits/stl_list.h **** 	{
 911:/opt/gcc-arm-none-eabi-9-2020-q2/arm-none-eabi/include/c++/9.3.1/bits/stl_list.h **** 	  // Check whether it's an integral type.  If so, it's not an iterator.
 912:/opt/gcc-arm-none-eabi-9-2020-q2/arm-none-eabi/include/c++/9.3.1/bits/stl_list.h **** 	  typedef typename std::__is_integer<_InputIterator>::__type _Integral;
 913:/opt/gcc-arm-none-eabi-9-2020-q2/arm-none-eabi/include/c++/9.3.1/bits/stl_list.h **** 	  _M_assign_dispatch(__first, __last, _Integral());
 914:/opt/gcc-arm-none-eabi-9-2020-q2/arm-none-eabi/include/c++/9.3.1/bits/stl_list.h **** 	}
 915:/opt/gcc-arm-none-eabi-9-2020-q2/arm-none-eabi/include/c++/9.3.1/bits/stl_list.h **** #endif
 916:/opt/gcc-arm-none-eabi-9-2020-q2/arm-none-eabi/include/c++/9.3.1/bits/stl_list.h **** 
 917:/opt/gcc-arm-none-eabi-9-2020-q2/arm-none-eabi/include/c++/9.3.1/bits/stl_list.h **** #if __cplusplus >= 201103L
 918:/opt/gcc-arm-none-eabi-9-2020-q2/arm-none-eabi/include/c++/9.3.1/bits/stl_list.h ****       /**
 919:/opt/gcc-arm-none-eabi-9-2020-q2/arm-none-eabi/include/c++/9.3.1/bits/stl_list.h ****        *  @brief  Assigns an initializer_list to a %list.
 920:/opt/gcc-arm-none-eabi-9-2020-q2/arm-none-eabi/include/c++/9.3.1/bits/stl_list.h ****        *  @param  __l  An initializer_list of value_type.
 921:/opt/gcc-arm-none-eabi-9-2020-q2/arm-none-eabi/include/c++/9.3.1/bits/stl_list.h ****        *
 922:/opt/gcc-arm-none-eabi-9-2020-q2/arm-none-eabi/include/c++/9.3.1/bits/stl_list.h ****        *  Replace the contents of the %list with copies of the elements
 923:/opt/gcc-arm-none-eabi-9-2020-q2/arm-none-eabi/include/c++/9.3.1/bits/stl_list.h ****        *  in the initializer_list @a __l.  This is linear in __l.size().
 924:/opt/gcc-arm-none-eabi-9-2020-q2/arm-none-eabi/include/c++/9.3.1/bits/stl_list.h ****        */
 925:/opt/gcc-arm-none-eabi-9-2020-q2/arm-none-eabi/include/c++/9.3.1/bits/stl_list.h ****       void
 926:/opt/gcc-arm-none-eabi-9-2020-q2/arm-none-eabi/include/c++/9.3.1/bits/stl_list.h ****       assign(initializer_list<value_type> __l)
 927:/opt/gcc-arm-none-eabi-9-2020-q2/arm-none-eabi/include/c++/9.3.1/bits/stl_list.h ****       { this->_M_assign_dispatch(__l.begin(), __l.end(), __false_type()); }
 928:/opt/gcc-arm-none-eabi-9-2020-q2/arm-none-eabi/include/c++/9.3.1/bits/stl_list.h **** #endif
 929:/opt/gcc-arm-none-eabi-9-2020-q2/arm-none-eabi/include/c++/9.3.1/bits/stl_list.h **** 
 930:/opt/gcc-arm-none-eabi-9-2020-q2/arm-none-eabi/include/c++/9.3.1/bits/stl_list.h ****       /// Get a copy of the memory allocation object.
 931:/opt/gcc-arm-none-eabi-9-2020-q2/arm-none-eabi/include/c++/9.3.1/bits/stl_list.h ****       allocator_type
 932:/opt/gcc-arm-none-eabi-9-2020-q2/arm-none-eabi/include/c++/9.3.1/bits/stl_list.h ****       get_allocator() const _GLIBCXX_NOEXCEPT
 933:/opt/gcc-arm-none-eabi-9-2020-q2/arm-none-eabi/include/c++/9.3.1/bits/stl_list.h ****       { return allocator_type(_Base::_M_get_Node_allocator()); }
 934:/opt/gcc-arm-none-eabi-9-2020-q2/arm-none-eabi/include/c++/9.3.1/bits/stl_list.h **** 
 935:/opt/gcc-arm-none-eabi-9-2020-q2/arm-none-eabi/include/c++/9.3.1/bits/stl_list.h ****       // iterators
 936:/opt/gcc-arm-none-eabi-9-2020-q2/arm-none-eabi/include/c++/9.3.1/bits/stl_list.h ****       /**
 937:/opt/gcc-arm-none-eabi-9-2020-q2/arm-none-eabi/include/c++/9.3.1/bits/stl_list.h ****        *  Returns a read/write iterator that points to the first element in the
 938:/opt/gcc-arm-none-eabi-9-2020-q2/arm-none-eabi/include/c++/9.3.1/bits/stl_list.h ****        *  %list.  Iteration is done in ordinary element order.
 939:/opt/gcc-arm-none-eabi-9-2020-q2/arm-none-eabi/include/c++/9.3.1/bits/stl_list.h ****        */
 940:/opt/gcc-arm-none-eabi-9-2020-q2/arm-none-eabi/include/c++/9.3.1/bits/stl_list.h ****       iterator
 941:/opt/gcc-arm-none-eabi-9-2020-q2/arm-none-eabi/include/c++/9.3.1/bits/stl_list.h ****       begin() _GLIBCXX_NOEXCEPT
 239              		.loc 3 941 7 is_stmt 1 view .LVU34
 240              	.LBB845:
 241              	.LBB846:
 242              	.LBI846:
 200:/opt/gcc-arm-none-eabi-9-2020-q2/arm-none-eabi/include/c++/9.3.1/bits/stl_list.h ****       : _M_node(__x) { }
 243              		.loc 3 200 7 view .LVU35
 200:/opt/gcc-arm-none-eabi-9-2020-q2/arm-none-eabi/include/c++/9.3.1/bits/stl_list.h ****       : _M_node(__x) { }
ARM GAS  /tmp/ccQ3xVGk.s 			page 31


 244              		.loc 3 200 7 is_stmt 0 view .LVU36
 245              	.LBE846:
 246              	.LBE845:
 247              	.LBE844:
 449:/opt/gcc-arm-none-eabi-9-2020-q2/arm-none-eabi/include/c++/9.3.1/bits/list.tcc **** 	  {
 450:/opt/gcc-arm-none-eabi-9-2020-q2/arm-none-eabi/include/c++/9.3.1/bits/list.tcc **** 	    _M_check_equal_allocators(__x);
 451:/opt/gcc-arm-none-eabi-9-2020-q2/arm-none-eabi/include/c++/9.3.1/bits/list.tcc **** 
 452:/opt/gcc-arm-none-eabi-9-2020-q2/arm-none-eabi/include/c++/9.3.1/bits/list.tcc **** 	    iterator __first1 = begin();
 248              		.loc 2 452 15 view .LVU37
 249 000c 0468     		ldr	r4, [r0]
 250              	.LVL15:
 251              	.LBB847:
 252              	.LBI847:
 942:/opt/gcc-arm-none-eabi-9-2020-q2/arm-none-eabi/include/c++/9.3.1/bits/stl_list.h ****       { return iterator(this->_M_impl._M_node._M_next); }
 943:/opt/gcc-arm-none-eabi-9-2020-q2/arm-none-eabi/include/c++/9.3.1/bits/stl_list.h **** 
 944:/opt/gcc-arm-none-eabi-9-2020-q2/arm-none-eabi/include/c++/9.3.1/bits/stl_list.h ****       /**
 945:/opt/gcc-arm-none-eabi-9-2020-q2/arm-none-eabi/include/c++/9.3.1/bits/stl_list.h ****        *  Returns a read-only (constant) iterator that points to the
 946:/opt/gcc-arm-none-eabi-9-2020-q2/arm-none-eabi/include/c++/9.3.1/bits/stl_list.h ****        *  first element in the %list.  Iteration is done in ordinary
 947:/opt/gcc-arm-none-eabi-9-2020-q2/arm-none-eabi/include/c++/9.3.1/bits/stl_list.h ****        *  element order.
 948:/opt/gcc-arm-none-eabi-9-2020-q2/arm-none-eabi/include/c++/9.3.1/bits/stl_list.h ****        */
 949:/opt/gcc-arm-none-eabi-9-2020-q2/arm-none-eabi/include/c++/9.3.1/bits/stl_list.h ****       const_iterator
 950:/opt/gcc-arm-none-eabi-9-2020-q2/arm-none-eabi/include/c++/9.3.1/bits/stl_list.h ****       begin() const _GLIBCXX_NOEXCEPT
 951:/opt/gcc-arm-none-eabi-9-2020-q2/arm-none-eabi/include/c++/9.3.1/bits/stl_list.h ****       { return const_iterator(this->_M_impl._M_node._M_next); }
 952:/opt/gcc-arm-none-eabi-9-2020-q2/arm-none-eabi/include/c++/9.3.1/bits/stl_list.h **** 
 953:/opt/gcc-arm-none-eabi-9-2020-q2/arm-none-eabi/include/c++/9.3.1/bits/stl_list.h ****       /**
 954:/opt/gcc-arm-none-eabi-9-2020-q2/arm-none-eabi/include/c++/9.3.1/bits/stl_list.h ****        *  Returns a read/write iterator that points one past the last
 955:/opt/gcc-arm-none-eabi-9-2020-q2/arm-none-eabi/include/c++/9.3.1/bits/stl_list.h ****        *  element in the %list.  Iteration is done in ordinary element
 956:/opt/gcc-arm-none-eabi-9-2020-q2/arm-none-eabi/include/c++/9.3.1/bits/stl_list.h ****        *  order.
 957:/opt/gcc-arm-none-eabi-9-2020-q2/arm-none-eabi/include/c++/9.3.1/bits/stl_list.h ****        */
 958:/opt/gcc-arm-none-eabi-9-2020-q2/arm-none-eabi/include/c++/9.3.1/bits/stl_list.h ****       iterator
 959:/opt/gcc-arm-none-eabi-9-2020-q2/arm-none-eabi/include/c++/9.3.1/bits/stl_list.h ****       end() _GLIBCXX_NOEXCEPT
 253              		.loc 3 959 7 is_stmt 1 view .LVU38
 254              	.LBB848:
 960:/opt/gcc-arm-none-eabi-9-2020-q2/arm-none-eabi/include/c++/9.3.1/bits/stl_list.h ****       { return iterator(&this->_M_impl._M_node); }
 255              		.loc 3 960 47 is_stmt 0 view .LVU39
 256 000e 0646     		mov	r6, r0
 257              	.LVL16:
 258              	.LBB849:
 259              	.LBI849:
 200:/opt/gcc-arm-none-eabi-9-2020-q2/arm-none-eabi/include/c++/9.3.1/bits/stl_list.h ****       : _M_node(__x) { }
 260              		.loc 3 200 7 is_stmt 1 view .LVU40
 200:/opt/gcc-arm-none-eabi-9-2020-q2/arm-none-eabi/include/c++/9.3.1/bits/stl_list.h ****       : _M_node(__x) { }
 261              		.loc 3 200 7 is_stmt 0 view .LVU41
 262              	.LBE849:
 263              	.LBE848:
 264              	.LBE847:
 265              	.LBB850:
 266              	.LBI850:
 941:/opt/gcc-arm-none-eabi-9-2020-q2/arm-none-eabi/include/c++/9.3.1/bits/stl_list.h ****       { return iterator(this->_M_impl._M_node._M_next); }
 267              		.loc 3 941 7 is_stmt 1 view .LVU42
 268              	.LBB851:
 269              	.LBB852:
 270              	.LBI852:
 200:/opt/gcc-arm-none-eabi-9-2020-q2/arm-none-eabi/include/c++/9.3.1/bits/stl_list.h ****       : _M_node(__x) { }
 271              		.loc 3 200 7 view .LVU43
 200:/opt/gcc-arm-none-eabi-9-2020-q2/arm-none-eabi/include/c++/9.3.1/bits/stl_list.h ****       : _M_node(__x) { }
 272              		.loc 3 200 7 is_stmt 0 view .LVU44
ARM GAS  /tmp/ccQ3xVGk.s 			page 32


 273              	.LBE852:
 274              	.LBE851:
 275              	.LBE850:
 453:/opt/gcc-arm-none-eabi-9-2020-q2/arm-none-eabi/include/c++/9.3.1/bits/list.tcc **** 	    iterator __last1 = end();
 454:/opt/gcc-arm-none-eabi-9-2020-q2/arm-none-eabi/include/c++/9.3.1/bits/list.tcc **** 	    iterator __first2 = __x.begin();
 276              		.loc 2 454 15 view .LVU45
 277 0010 D1F800C0 		ldr	ip, [r1]
 278              	.LVL17:
 279              	.LBB853:
 280              	.LBI853:
 959:/opt/gcc-arm-none-eabi-9-2020-q2/arm-none-eabi/include/c++/9.3.1/bits/stl_list.h ****       { return iterator(&this->_M_impl._M_node); }
 281              		.loc 3 959 7 is_stmt 1 view .LVU46
 282              	.LBB854:
 283              		.loc 3 960 47 is_stmt 0 view .LVU47
 284 0014 8846     		mov	r8, r1
 285              	.LVL18:
 286              	.LBB855:
 287              	.LBI855:
 200:/opt/gcc-arm-none-eabi-9-2020-q2/arm-none-eabi/include/c++/9.3.1/bits/stl_list.h ****       : _M_node(__x) { }
 288              		.loc 3 200 7 is_stmt 1 view .LVU48
 200:/opt/gcc-arm-none-eabi-9-2020-q2/arm-none-eabi/include/c++/9.3.1/bits/stl_list.h ****       : _M_node(__x) { }
 289              		.loc 3 200 7 is_stmt 0 view .LVU49
 290 0016 1DE0     		b	.L14
 291              	.LVL19:
 292              	.L15:
 200:/opt/gcc-arm-none-eabi-9-2020-q2/arm-none-eabi/include/c++/9.3.1/bits/stl_list.h ****       : _M_node(__x) { }
 293              		.loc 3 200 7 view .LVU50
 294              	.LBE855:
 295              	.LBE854:
 296              	.LBE853:
 297              	.LBB856:
 298              	.LBB857:
 299              	.LBI857:
 251:/opt/gcc-arm-none-eabi-9-2020-q2/arm-none-eabi/include/c++/9.3.1/bits/stl_list.h ****       { return __x._M_node != __y._M_node; }
 300              		.loc 3 251 7 is_stmt 1 discriminator 4 view .LVU51
 251:/opt/gcc-arm-none-eabi-9-2020-q2/arm-none-eabi/include/c++/9.3.1/bits/stl_list.h ****       { return __x._M_node != __y._M_node; }
 301              		.loc 3 251 7 is_stmt 0 discriminator 4 view .LVU52
 302              	.LBE857:
 455:/opt/gcc-arm-none-eabi-9-2020-q2/arm-none-eabi/include/c++/9.3.1/bits/list.tcc **** 	    iterator __last2 = __x.end();
 456:/opt/gcc-arm-none-eabi-9-2020-q2/arm-none-eabi/include/c++/9.3.1/bits/list.tcc **** 	    const size_t __orig_size = __x.size();
 457:/opt/gcc-arm-none-eabi-9-2020-q2/arm-none-eabi/include/c++/9.3.1/bits/list.tcc **** 	    __try
 458:/opt/gcc-arm-none-eabi-9-2020-q2/arm-none-eabi/include/c++/9.3.1/bits/list.tcc **** 	      {
 459:/opt/gcc-arm-none-eabi-9-2020-q2/arm-none-eabi/include/c++/9.3.1/bits/list.tcc **** 		while (__first1 != __last1 && __first2 != __last2)
 460:/opt/gcc-arm-none-eabi-9-2020-q2/arm-none-eabi/include/c++/9.3.1/bits/list.tcc **** 		  if (__comp(*__first2, *__first1))
 461:/opt/gcc-arm-none-eabi-9-2020-q2/arm-none-eabi/include/c++/9.3.1/bits/list.tcc **** 		    {
 462:/opt/gcc-arm-none-eabi-9-2020-q2/arm-none-eabi/include/c++/9.3.1/bits/list.tcc **** 		      iterator __next = __first2;
 463:/opt/gcc-arm-none-eabi-9-2020-q2/arm-none-eabi/include/c++/9.3.1/bits/list.tcc **** 		      _M_transfer(__first1, __first2, ++__next);
 464:/opt/gcc-arm-none-eabi-9-2020-q2/arm-none-eabi/include/c++/9.3.1/bits/list.tcc **** 		      __first2 = __next;
 465:/opt/gcc-arm-none-eabi-9-2020-q2/arm-none-eabi/include/c++/9.3.1/bits/list.tcc **** 		    }
 466:/opt/gcc-arm-none-eabi-9-2020-q2/arm-none-eabi/include/c++/9.3.1/bits/list.tcc **** 		  else
 467:/opt/gcc-arm-none-eabi-9-2020-q2/arm-none-eabi/include/c++/9.3.1/bits/list.tcc **** 		    ++__first1;
 468:/opt/gcc-arm-none-eabi-9-2020-q2/arm-none-eabi/include/c++/9.3.1/bits/list.tcc **** 		if (__first2 != __last2)
 303              		.loc 2 468 3 discriminator 4 view .LVU53
 304 0018 6545     		cmp	r5, ip
 305 001a 04D0     		beq	.L19
 306              	.LVL20:
 307              	.LBB858:
ARM GAS  /tmp/ccQ3xVGk.s 			page 33


 308              	.LBI858:
 961:/opt/gcc-arm-none-eabi-9-2020-q2/arm-none-eabi/include/c++/9.3.1/bits/stl_list.h **** 
 962:/opt/gcc-arm-none-eabi-9-2020-q2/arm-none-eabi/include/c++/9.3.1/bits/stl_list.h ****       /**
 963:/opt/gcc-arm-none-eabi-9-2020-q2/arm-none-eabi/include/c++/9.3.1/bits/stl_list.h ****        *  Returns a read-only (constant) iterator that points one past
 964:/opt/gcc-arm-none-eabi-9-2020-q2/arm-none-eabi/include/c++/9.3.1/bits/stl_list.h ****        *  the last element in the %list.  Iteration is done in ordinary
 965:/opt/gcc-arm-none-eabi-9-2020-q2/arm-none-eabi/include/c++/9.3.1/bits/stl_list.h ****        *  element order.
 966:/opt/gcc-arm-none-eabi-9-2020-q2/arm-none-eabi/include/c++/9.3.1/bits/stl_list.h ****        */
 967:/opt/gcc-arm-none-eabi-9-2020-q2/arm-none-eabi/include/c++/9.3.1/bits/stl_list.h ****       const_iterator
 968:/opt/gcc-arm-none-eabi-9-2020-q2/arm-none-eabi/include/c++/9.3.1/bits/stl_list.h ****       end() const _GLIBCXX_NOEXCEPT
 969:/opt/gcc-arm-none-eabi-9-2020-q2/arm-none-eabi/include/c++/9.3.1/bits/stl_list.h ****       { return const_iterator(&this->_M_impl._M_node); }
 970:/opt/gcc-arm-none-eabi-9-2020-q2/arm-none-eabi/include/c++/9.3.1/bits/stl_list.h **** 
 971:/opt/gcc-arm-none-eabi-9-2020-q2/arm-none-eabi/include/c++/9.3.1/bits/stl_list.h ****       /**
 972:/opt/gcc-arm-none-eabi-9-2020-q2/arm-none-eabi/include/c++/9.3.1/bits/stl_list.h ****        *  Returns a read/write reverse iterator that points to the last
 973:/opt/gcc-arm-none-eabi-9-2020-q2/arm-none-eabi/include/c++/9.3.1/bits/stl_list.h ****        *  element in the %list.  Iteration is done in reverse element
 974:/opt/gcc-arm-none-eabi-9-2020-q2/arm-none-eabi/include/c++/9.3.1/bits/stl_list.h ****        *  order.
 975:/opt/gcc-arm-none-eabi-9-2020-q2/arm-none-eabi/include/c++/9.3.1/bits/stl_list.h ****        */
 976:/opt/gcc-arm-none-eabi-9-2020-q2/arm-none-eabi/include/c++/9.3.1/bits/stl_list.h ****       reverse_iterator
 977:/opt/gcc-arm-none-eabi-9-2020-q2/arm-none-eabi/include/c++/9.3.1/bits/stl_list.h ****       rbegin() _GLIBCXX_NOEXCEPT
 978:/opt/gcc-arm-none-eabi-9-2020-q2/arm-none-eabi/include/c++/9.3.1/bits/stl_list.h ****       { return reverse_iterator(end()); }
 979:/opt/gcc-arm-none-eabi-9-2020-q2/arm-none-eabi/include/c++/9.3.1/bits/stl_list.h **** 
 980:/opt/gcc-arm-none-eabi-9-2020-q2/arm-none-eabi/include/c++/9.3.1/bits/stl_list.h ****       /**
 981:/opt/gcc-arm-none-eabi-9-2020-q2/arm-none-eabi/include/c++/9.3.1/bits/stl_list.h ****        *  Returns a read-only (constant) reverse iterator that points to
 982:/opt/gcc-arm-none-eabi-9-2020-q2/arm-none-eabi/include/c++/9.3.1/bits/stl_list.h ****        *  the last element in the %list.  Iteration is done in reverse
 983:/opt/gcc-arm-none-eabi-9-2020-q2/arm-none-eabi/include/c++/9.3.1/bits/stl_list.h ****        *  element order.
 984:/opt/gcc-arm-none-eabi-9-2020-q2/arm-none-eabi/include/c++/9.3.1/bits/stl_list.h ****        */
 985:/opt/gcc-arm-none-eabi-9-2020-q2/arm-none-eabi/include/c++/9.3.1/bits/stl_list.h ****       const_reverse_iterator
 986:/opt/gcc-arm-none-eabi-9-2020-q2/arm-none-eabi/include/c++/9.3.1/bits/stl_list.h ****       rbegin() const _GLIBCXX_NOEXCEPT
 987:/opt/gcc-arm-none-eabi-9-2020-q2/arm-none-eabi/include/c++/9.3.1/bits/stl_list.h ****       { return const_reverse_iterator(end()); }
 988:/opt/gcc-arm-none-eabi-9-2020-q2/arm-none-eabi/include/c++/9.3.1/bits/stl_list.h **** 
 989:/opt/gcc-arm-none-eabi-9-2020-q2/arm-none-eabi/include/c++/9.3.1/bits/stl_list.h ****       /**
 990:/opt/gcc-arm-none-eabi-9-2020-q2/arm-none-eabi/include/c++/9.3.1/bits/stl_list.h ****        *  Returns a read/write reverse iterator that points to one
 991:/opt/gcc-arm-none-eabi-9-2020-q2/arm-none-eabi/include/c++/9.3.1/bits/stl_list.h ****        *  before the first element in the %list.  Iteration is done in
 992:/opt/gcc-arm-none-eabi-9-2020-q2/arm-none-eabi/include/c++/9.3.1/bits/stl_list.h ****        *  reverse element order.
 993:/opt/gcc-arm-none-eabi-9-2020-q2/arm-none-eabi/include/c++/9.3.1/bits/stl_list.h ****        */
 994:/opt/gcc-arm-none-eabi-9-2020-q2/arm-none-eabi/include/c++/9.3.1/bits/stl_list.h ****       reverse_iterator
 995:/opt/gcc-arm-none-eabi-9-2020-q2/arm-none-eabi/include/c++/9.3.1/bits/stl_list.h ****       rend() _GLIBCXX_NOEXCEPT
 996:/opt/gcc-arm-none-eabi-9-2020-q2/arm-none-eabi/include/c++/9.3.1/bits/stl_list.h ****       { return reverse_iterator(begin()); }
 997:/opt/gcc-arm-none-eabi-9-2020-q2/arm-none-eabi/include/c++/9.3.1/bits/stl_list.h **** 
 998:/opt/gcc-arm-none-eabi-9-2020-q2/arm-none-eabi/include/c++/9.3.1/bits/stl_list.h ****       /**
 999:/opt/gcc-arm-none-eabi-9-2020-q2/arm-none-eabi/include/c++/9.3.1/bits/stl_list.h ****        *  Returns a read-only (constant) reverse iterator that points to one
1000:/opt/gcc-arm-none-eabi-9-2020-q2/arm-none-eabi/include/c++/9.3.1/bits/stl_list.h ****        *  before the first element in the %list.  Iteration is done in reverse
1001:/opt/gcc-arm-none-eabi-9-2020-q2/arm-none-eabi/include/c++/9.3.1/bits/stl_list.h ****        *  element order.
1002:/opt/gcc-arm-none-eabi-9-2020-q2/arm-none-eabi/include/c++/9.3.1/bits/stl_list.h ****        */
1003:/opt/gcc-arm-none-eabi-9-2020-q2/arm-none-eabi/include/c++/9.3.1/bits/stl_list.h ****       const_reverse_iterator
1004:/opt/gcc-arm-none-eabi-9-2020-q2/arm-none-eabi/include/c++/9.3.1/bits/stl_list.h ****       rend() const _GLIBCXX_NOEXCEPT
1005:/opt/gcc-arm-none-eabi-9-2020-q2/arm-none-eabi/include/c++/9.3.1/bits/stl_list.h ****       { return const_reverse_iterator(begin()); }
1006:/opt/gcc-arm-none-eabi-9-2020-q2/arm-none-eabi/include/c++/9.3.1/bits/stl_list.h **** 
1007:/opt/gcc-arm-none-eabi-9-2020-q2/arm-none-eabi/include/c++/9.3.1/bits/stl_list.h **** #if __cplusplus >= 201103L
1008:/opt/gcc-arm-none-eabi-9-2020-q2/arm-none-eabi/include/c++/9.3.1/bits/stl_list.h ****       /**
1009:/opt/gcc-arm-none-eabi-9-2020-q2/arm-none-eabi/include/c++/9.3.1/bits/stl_list.h ****        *  Returns a read-only (constant) iterator that points to the
1010:/opt/gcc-arm-none-eabi-9-2020-q2/arm-none-eabi/include/c++/9.3.1/bits/stl_list.h ****        *  first element in the %list.  Iteration is done in ordinary
1011:/opt/gcc-arm-none-eabi-9-2020-q2/arm-none-eabi/include/c++/9.3.1/bits/stl_list.h ****        *  element order.
1012:/opt/gcc-arm-none-eabi-9-2020-q2/arm-none-eabi/include/c++/9.3.1/bits/stl_list.h ****        */
1013:/opt/gcc-arm-none-eabi-9-2020-q2/arm-none-eabi/include/c++/9.3.1/bits/stl_list.h ****       const_iterator
1014:/opt/gcc-arm-none-eabi-9-2020-q2/arm-none-eabi/include/c++/9.3.1/bits/stl_list.h ****       cbegin() const noexcept
1015:/opt/gcc-arm-none-eabi-9-2020-q2/arm-none-eabi/include/c++/9.3.1/bits/stl_list.h ****       { return const_iterator(this->_M_impl._M_node._M_next); }
1016:/opt/gcc-arm-none-eabi-9-2020-q2/arm-none-eabi/include/c++/9.3.1/bits/stl_list.h **** 
ARM GAS  /tmp/ccQ3xVGk.s 			page 34


1017:/opt/gcc-arm-none-eabi-9-2020-q2/arm-none-eabi/include/c++/9.3.1/bits/stl_list.h ****       /**
1018:/opt/gcc-arm-none-eabi-9-2020-q2/arm-none-eabi/include/c++/9.3.1/bits/stl_list.h ****        *  Returns a read-only (constant) iterator that points one past
1019:/opt/gcc-arm-none-eabi-9-2020-q2/arm-none-eabi/include/c++/9.3.1/bits/stl_list.h ****        *  the last element in the %list.  Iteration is done in ordinary
1020:/opt/gcc-arm-none-eabi-9-2020-q2/arm-none-eabi/include/c++/9.3.1/bits/stl_list.h ****        *  element order.
1021:/opt/gcc-arm-none-eabi-9-2020-q2/arm-none-eabi/include/c++/9.3.1/bits/stl_list.h ****        */
1022:/opt/gcc-arm-none-eabi-9-2020-q2/arm-none-eabi/include/c++/9.3.1/bits/stl_list.h ****       const_iterator
1023:/opt/gcc-arm-none-eabi-9-2020-q2/arm-none-eabi/include/c++/9.3.1/bits/stl_list.h ****       cend() const noexcept
1024:/opt/gcc-arm-none-eabi-9-2020-q2/arm-none-eabi/include/c++/9.3.1/bits/stl_list.h ****       { return const_iterator(&this->_M_impl._M_node); }
1025:/opt/gcc-arm-none-eabi-9-2020-q2/arm-none-eabi/include/c++/9.3.1/bits/stl_list.h **** 
1026:/opt/gcc-arm-none-eabi-9-2020-q2/arm-none-eabi/include/c++/9.3.1/bits/stl_list.h ****       /**
1027:/opt/gcc-arm-none-eabi-9-2020-q2/arm-none-eabi/include/c++/9.3.1/bits/stl_list.h ****        *  Returns a read-only (constant) reverse iterator that points to
1028:/opt/gcc-arm-none-eabi-9-2020-q2/arm-none-eabi/include/c++/9.3.1/bits/stl_list.h ****        *  the last element in the %list.  Iteration is done in reverse
1029:/opt/gcc-arm-none-eabi-9-2020-q2/arm-none-eabi/include/c++/9.3.1/bits/stl_list.h ****        *  element order.
1030:/opt/gcc-arm-none-eabi-9-2020-q2/arm-none-eabi/include/c++/9.3.1/bits/stl_list.h ****        */
1031:/opt/gcc-arm-none-eabi-9-2020-q2/arm-none-eabi/include/c++/9.3.1/bits/stl_list.h ****       const_reverse_iterator
1032:/opt/gcc-arm-none-eabi-9-2020-q2/arm-none-eabi/include/c++/9.3.1/bits/stl_list.h ****       crbegin() const noexcept
1033:/opt/gcc-arm-none-eabi-9-2020-q2/arm-none-eabi/include/c++/9.3.1/bits/stl_list.h ****       { return const_reverse_iterator(end()); }
1034:/opt/gcc-arm-none-eabi-9-2020-q2/arm-none-eabi/include/c++/9.3.1/bits/stl_list.h **** 
1035:/opt/gcc-arm-none-eabi-9-2020-q2/arm-none-eabi/include/c++/9.3.1/bits/stl_list.h ****       /**
1036:/opt/gcc-arm-none-eabi-9-2020-q2/arm-none-eabi/include/c++/9.3.1/bits/stl_list.h ****        *  Returns a read-only (constant) reverse iterator that points to one
1037:/opt/gcc-arm-none-eabi-9-2020-q2/arm-none-eabi/include/c++/9.3.1/bits/stl_list.h ****        *  before the first element in the %list.  Iteration is done in reverse
1038:/opt/gcc-arm-none-eabi-9-2020-q2/arm-none-eabi/include/c++/9.3.1/bits/stl_list.h ****        *  element order.
1039:/opt/gcc-arm-none-eabi-9-2020-q2/arm-none-eabi/include/c++/9.3.1/bits/stl_list.h ****        */
1040:/opt/gcc-arm-none-eabi-9-2020-q2/arm-none-eabi/include/c++/9.3.1/bits/stl_list.h ****       const_reverse_iterator
1041:/opt/gcc-arm-none-eabi-9-2020-q2/arm-none-eabi/include/c++/9.3.1/bits/stl_list.h ****       crend() const noexcept
1042:/opt/gcc-arm-none-eabi-9-2020-q2/arm-none-eabi/include/c++/9.3.1/bits/stl_list.h ****       { return const_reverse_iterator(begin()); }
1043:/opt/gcc-arm-none-eabi-9-2020-q2/arm-none-eabi/include/c++/9.3.1/bits/stl_list.h **** #endif
1044:/opt/gcc-arm-none-eabi-9-2020-q2/arm-none-eabi/include/c++/9.3.1/bits/stl_list.h **** 
1045:/opt/gcc-arm-none-eabi-9-2020-q2/arm-none-eabi/include/c++/9.3.1/bits/stl_list.h ****       // [23.2.2.2] capacity
1046:/opt/gcc-arm-none-eabi-9-2020-q2/arm-none-eabi/include/c++/9.3.1/bits/stl_list.h ****       /**
1047:/opt/gcc-arm-none-eabi-9-2020-q2/arm-none-eabi/include/c++/9.3.1/bits/stl_list.h ****        *  Returns true if the %list is empty.  (Thus begin() would equal
1048:/opt/gcc-arm-none-eabi-9-2020-q2/arm-none-eabi/include/c++/9.3.1/bits/stl_list.h ****        *  end().)
1049:/opt/gcc-arm-none-eabi-9-2020-q2/arm-none-eabi/include/c++/9.3.1/bits/stl_list.h ****        */
1050:/opt/gcc-arm-none-eabi-9-2020-q2/arm-none-eabi/include/c++/9.3.1/bits/stl_list.h ****       _GLIBCXX_NODISCARD bool
1051:/opt/gcc-arm-none-eabi-9-2020-q2/arm-none-eabi/include/c++/9.3.1/bits/stl_list.h ****       empty() const _GLIBCXX_NOEXCEPT
1052:/opt/gcc-arm-none-eabi-9-2020-q2/arm-none-eabi/include/c++/9.3.1/bits/stl_list.h ****       { return this->_M_impl._M_node._M_next == &this->_M_impl._M_node; }
1053:/opt/gcc-arm-none-eabi-9-2020-q2/arm-none-eabi/include/c++/9.3.1/bits/stl_list.h **** 
1054:/opt/gcc-arm-none-eabi-9-2020-q2/arm-none-eabi/include/c++/9.3.1/bits/stl_list.h ****       /**  Returns the number of elements in the %list.  */
1055:/opt/gcc-arm-none-eabi-9-2020-q2/arm-none-eabi/include/c++/9.3.1/bits/stl_list.h ****       size_type
1056:/opt/gcc-arm-none-eabi-9-2020-q2/arm-none-eabi/include/c++/9.3.1/bits/stl_list.h ****       size() const _GLIBCXX_NOEXCEPT
1057:/opt/gcc-arm-none-eabi-9-2020-q2/arm-none-eabi/include/c++/9.3.1/bits/stl_list.h ****       { return _M_node_count(); }
1058:/opt/gcc-arm-none-eabi-9-2020-q2/arm-none-eabi/include/c++/9.3.1/bits/stl_list.h **** 
1059:/opt/gcc-arm-none-eabi-9-2020-q2/arm-none-eabi/include/c++/9.3.1/bits/stl_list.h ****       /**  Returns the size() of the largest possible %list.  */
1060:/opt/gcc-arm-none-eabi-9-2020-q2/arm-none-eabi/include/c++/9.3.1/bits/stl_list.h ****       size_type
1061:/opt/gcc-arm-none-eabi-9-2020-q2/arm-none-eabi/include/c++/9.3.1/bits/stl_list.h ****       max_size() const _GLIBCXX_NOEXCEPT
1062:/opt/gcc-arm-none-eabi-9-2020-q2/arm-none-eabi/include/c++/9.3.1/bits/stl_list.h ****       { return _Node_alloc_traits::max_size(_M_get_Node_allocator()); }
1063:/opt/gcc-arm-none-eabi-9-2020-q2/arm-none-eabi/include/c++/9.3.1/bits/stl_list.h **** 
1064:/opt/gcc-arm-none-eabi-9-2020-q2/arm-none-eabi/include/c++/9.3.1/bits/stl_list.h **** #if __cplusplus >= 201103L
1065:/opt/gcc-arm-none-eabi-9-2020-q2/arm-none-eabi/include/c++/9.3.1/bits/stl_list.h ****       /**
1066:/opt/gcc-arm-none-eabi-9-2020-q2/arm-none-eabi/include/c++/9.3.1/bits/stl_list.h ****        *  @brief Resizes the %list to the specified number of elements.
1067:/opt/gcc-arm-none-eabi-9-2020-q2/arm-none-eabi/include/c++/9.3.1/bits/stl_list.h ****        *  @param __new_size Number of elements the %list should contain.
1068:/opt/gcc-arm-none-eabi-9-2020-q2/arm-none-eabi/include/c++/9.3.1/bits/stl_list.h ****        *
1069:/opt/gcc-arm-none-eabi-9-2020-q2/arm-none-eabi/include/c++/9.3.1/bits/stl_list.h ****        *  This function will %resize the %list to the specified number
1070:/opt/gcc-arm-none-eabi-9-2020-q2/arm-none-eabi/include/c++/9.3.1/bits/stl_list.h ****        *  of elements.  If the number is smaller than the %list's
1071:/opt/gcc-arm-none-eabi-9-2020-q2/arm-none-eabi/include/c++/9.3.1/bits/stl_list.h ****        *  current size the %list is truncated, otherwise default
1072:/opt/gcc-arm-none-eabi-9-2020-q2/arm-none-eabi/include/c++/9.3.1/bits/stl_list.h ****        *  constructed elements are appended.
1073:/opt/gcc-arm-none-eabi-9-2020-q2/arm-none-eabi/include/c++/9.3.1/bits/stl_list.h ****        */
ARM GAS  /tmp/ccQ3xVGk.s 			page 35


1074:/opt/gcc-arm-none-eabi-9-2020-q2/arm-none-eabi/include/c++/9.3.1/bits/stl_list.h ****       void
1075:/opt/gcc-arm-none-eabi-9-2020-q2/arm-none-eabi/include/c++/9.3.1/bits/stl_list.h ****       resize(size_type __new_size);
1076:/opt/gcc-arm-none-eabi-9-2020-q2/arm-none-eabi/include/c++/9.3.1/bits/stl_list.h **** 
1077:/opt/gcc-arm-none-eabi-9-2020-q2/arm-none-eabi/include/c++/9.3.1/bits/stl_list.h ****       /**
1078:/opt/gcc-arm-none-eabi-9-2020-q2/arm-none-eabi/include/c++/9.3.1/bits/stl_list.h ****        *  @brief Resizes the %list to the specified number of elements.
1079:/opt/gcc-arm-none-eabi-9-2020-q2/arm-none-eabi/include/c++/9.3.1/bits/stl_list.h ****        *  @param __new_size Number of elements the %list should contain.
1080:/opt/gcc-arm-none-eabi-9-2020-q2/arm-none-eabi/include/c++/9.3.1/bits/stl_list.h ****        *  @param __x Data with which new elements should be populated.
1081:/opt/gcc-arm-none-eabi-9-2020-q2/arm-none-eabi/include/c++/9.3.1/bits/stl_list.h ****        *
1082:/opt/gcc-arm-none-eabi-9-2020-q2/arm-none-eabi/include/c++/9.3.1/bits/stl_list.h ****        *  This function will %resize the %list to the specified number
1083:/opt/gcc-arm-none-eabi-9-2020-q2/arm-none-eabi/include/c++/9.3.1/bits/stl_list.h ****        *  of elements.  If the number is smaller than the %list's
1084:/opt/gcc-arm-none-eabi-9-2020-q2/arm-none-eabi/include/c++/9.3.1/bits/stl_list.h ****        *  current size the %list is truncated, otherwise the %list is
1085:/opt/gcc-arm-none-eabi-9-2020-q2/arm-none-eabi/include/c++/9.3.1/bits/stl_list.h ****        *  extended and new elements are populated with given data.
1086:/opt/gcc-arm-none-eabi-9-2020-q2/arm-none-eabi/include/c++/9.3.1/bits/stl_list.h ****        */
1087:/opt/gcc-arm-none-eabi-9-2020-q2/arm-none-eabi/include/c++/9.3.1/bits/stl_list.h ****       void
1088:/opt/gcc-arm-none-eabi-9-2020-q2/arm-none-eabi/include/c++/9.3.1/bits/stl_list.h ****       resize(size_type __new_size, const value_type& __x);
1089:/opt/gcc-arm-none-eabi-9-2020-q2/arm-none-eabi/include/c++/9.3.1/bits/stl_list.h **** #else
1090:/opt/gcc-arm-none-eabi-9-2020-q2/arm-none-eabi/include/c++/9.3.1/bits/stl_list.h ****       /**
1091:/opt/gcc-arm-none-eabi-9-2020-q2/arm-none-eabi/include/c++/9.3.1/bits/stl_list.h ****        *  @brief Resizes the %list to the specified number of elements.
1092:/opt/gcc-arm-none-eabi-9-2020-q2/arm-none-eabi/include/c++/9.3.1/bits/stl_list.h ****        *  @param __new_size Number of elements the %list should contain.
1093:/opt/gcc-arm-none-eabi-9-2020-q2/arm-none-eabi/include/c++/9.3.1/bits/stl_list.h ****        *  @param __x Data with which new elements should be populated.
1094:/opt/gcc-arm-none-eabi-9-2020-q2/arm-none-eabi/include/c++/9.3.1/bits/stl_list.h ****        *
1095:/opt/gcc-arm-none-eabi-9-2020-q2/arm-none-eabi/include/c++/9.3.1/bits/stl_list.h ****        *  This function will %resize the %list to the specified number
1096:/opt/gcc-arm-none-eabi-9-2020-q2/arm-none-eabi/include/c++/9.3.1/bits/stl_list.h ****        *  of elements.  If the number is smaller than the %list's
1097:/opt/gcc-arm-none-eabi-9-2020-q2/arm-none-eabi/include/c++/9.3.1/bits/stl_list.h ****        *  current size the %list is truncated, otherwise the %list is
1098:/opt/gcc-arm-none-eabi-9-2020-q2/arm-none-eabi/include/c++/9.3.1/bits/stl_list.h ****        *  extended and new elements are populated with given data.
1099:/opt/gcc-arm-none-eabi-9-2020-q2/arm-none-eabi/include/c++/9.3.1/bits/stl_list.h ****        */
1100:/opt/gcc-arm-none-eabi-9-2020-q2/arm-none-eabi/include/c++/9.3.1/bits/stl_list.h ****       void
1101:/opt/gcc-arm-none-eabi-9-2020-q2/arm-none-eabi/include/c++/9.3.1/bits/stl_list.h ****       resize(size_type __new_size, value_type __x = value_type());
1102:/opt/gcc-arm-none-eabi-9-2020-q2/arm-none-eabi/include/c++/9.3.1/bits/stl_list.h **** #endif
1103:/opt/gcc-arm-none-eabi-9-2020-q2/arm-none-eabi/include/c++/9.3.1/bits/stl_list.h **** 
1104:/opt/gcc-arm-none-eabi-9-2020-q2/arm-none-eabi/include/c++/9.3.1/bits/stl_list.h ****       // element access
1105:/opt/gcc-arm-none-eabi-9-2020-q2/arm-none-eabi/include/c++/9.3.1/bits/stl_list.h ****       /**
1106:/opt/gcc-arm-none-eabi-9-2020-q2/arm-none-eabi/include/c++/9.3.1/bits/stl_list.h ****        *  Returns a read/write reference to the data at the first
1107:/opt/gcc-arm-none-eabi-9-2020-q2/arm-none-eabi/include/c++/9.3.1/bits/stl_list.h ****        *  element of the %list.
1108:/opt/gcc-arm-none-eabi-9-2020-q2/arm-none-eabi/include/c++/9.3.1/bits/stl_list.h ****        */
1109:/opt/gcc-arm-none-eabi-9-2020-q2/arm-none-eabi/include/c++/9.3.1/bits/stl_list.h ****       reference
1110:/opt/gcc-arm-none-eabi-9-2020-q2/arm-none-eabi/include/c++/9.3.1/bits/stl_list.h ****       front() _GLIBCXX_NOEXCEPT
1111:/opt/gcc-arm-none-eabi-9-2020-q2/arm-none-eabi/include/c++/9.3.1/bits/stl_list.h ****       { return *begin(); }
1112:/opt/gcc-arm-none-eabi-9-2020-q2/arm-none-eabi/include/c++/9.3.1/bits/stl_list.h **** 
1113:/opt/gcc-arm-none-eabi-9-2020-q2/arm-none-eabi/include/c++/9.3.1/bits/stl_list.h ****       /**
1114:/opt/gcc-arm-none-eabi-9-2020-q2/arm-none-eabi/include/c++/9.3.1/bits/stl_list.h ****        *  Returns a read-only (constant) reference to the data at the first
1115:/opt/gcc-arm-none-eabi-9-2020-q2/arm-none-eabi/include/c++/9.3.1/bits/stl_list.h ****        *  element of the %list.
1116:/opt/gcc-arm-none-eabi-9-2020-q2/arm-none-eabi/include/c++/9.3.1/bits/stl_list.h ****        */
1117:/opt/gcc-arm-none-eabi-9-2020-q2/arm-none-eabi/include/c++/9.3.1/bits/stl_list.h ****       const_reference
1118:/opt/gcc-arm-none-eabi-9-2020-q2/arm-none-eabi/include/c++/9.3.1/bits/stl_list.h ****       front() const _GLIBCXX_NOEXCEPT
1119:/opt/gcc-arm-none-eabi-9-2020-q2/arm-none-eabi/include/c++/9.3.1/bits/stl_list.h ****       { return *begin(); }
1120:/opt/gcc-arm-none-eabi-9-2020-q2/arm-none-eabi/include/c++/9.3.1/bits/stl_list.h **** 
1121:/opt/gcc-arm-none-eabi-9-2020-q2/arm-none-eabi/include/c++/9.3.1/bits/stl_list.h ****       /**
1122:/opt/gcc-arm-none-eabi-9-2020-q2/arm-none-eabi/include/c++/9.3.1/bits/stl_list.h ****        *  Returns a read/write reference to the data at the last element
1123:/opt/gcc-arm-none-eabi-9-2020-q2/arm-none-eabi/include/c++/9.3.1/bits/stl_list.h ****        *  of the %list.
1124:/opt/gcc-arm-none-eabi-9-2020-q2/arm-none-eabi/include/c++/9.3.1/bits/stl_list.h ****        */
1125:/opt/gcc-arm-none-eabi-9-2020-q2/arm-none-eabi/include/c++/9.3.1/bits/stl_list.h ****       reference
1126:/opt/gcc-arm-none-eabi-9-2020-q2/arm-none-eabi/include/c++/9.3.1/bits/stl_list.h ****       back() _GLIBCXX_NOEXCEPT
1127:/opt/gcc-arm-none-eabi-9-2020-q2/arm-none-eabi/include/c++/9.3.1/bits/stl_list.h ****       {
1128:/opt/gcc-arm-none-eabi-9-2020-q2/arm-none-eabi/include/c++/9.3.1/bits/stl_list.h **** 	iterator __tmp = end();
1129:/opt/gcc-arm-none-eabi-9-2020-q2/arm-none-eabi/include/c++/9.3.1/bits/stl_list.h **** 	--__tmp;
1130:/opt/gcc-arm-none-eabi-9-2020-q2/arm-none-eabi/include/c++/9.3.1/bits/stl_list.h **** 	return *__tmp;
ARM GAS  /tmp/ccQ3xVGk.s 			page 36


1131:/opt/gcc-arm-none-eabi-9-2020-q2/arm-none-eabi/include/c++/9.3.1/bits/stl_list.h ****       }
1132:/opt/gcc-arm-none-eabi-9-2020-q2/arm-none-eabi/include/c++/9.3.1/bits/stl_list.h **** 
1133:/opt/gcc-arm-none-eabi-9-2020-q2/arm-none-eabi/include/c++/9.3.1/bits/stl_list.h ****       /**
1134:/opt/gcc-arm-none-eabi-9-2020-q2/arm-none-eabi/include/c++/9.3.1/bits/stl_list.h ****        *  Returns a read-only (constant) reference to the data at the last
1135:/opt/gcc-arm-none-eabi-9-2020-q2/arm-none-eabi/include/c++/9.3.1/bits/stl_list.h ****        *  element of the %list.
1136:/opt/gcc-arm-none-eabi-9-2020-q2/arm-none-eabi/include/c++/9.3.1/bits/stl_list.h ****        */
1137:/opt/gcc-arm-none-eabi-9-2020-q2/arm-none-eabi/include/c++/9.3.1/bits/stl_list.h ****       const_reference
1138:/opt/gcc-arm-none-eabi-9-2020-q2/arm-none-eabi/include/c++/9.3.1/bits/stl_list.h ****       back() const _GLIBCXX_NOEXCEPT
1139:/opt/gcc-arm-none-eabi-9-2020-q2/arm-none-eabi/include/c++/9.3.1/bits/stl_list.h ****       {
1140:/opt/gcc-arm-none-eabi-9-2020-q2/arm-none-eabi/include/c++/9.3.1/bits/stl_list.h **** 	const_iterator __tmp = end();
1141:/opt/gcc-arm-none-eabi-9-2020-q2/arm-none-eabi/include/c++/9.3.1/bits/stl_list.h **** 	--__tmp;
1142:/opt/gcc-arm-none-eabi-9-2020-q2/arm-none-eabi/include/c++/9.3.1/bits/stl_list.h **** 	return *__tmp;
1143:/opt/gcc-arm-none-eabi-9-2020-q2/arm-none-eabi/include/c++/9.3.1/bits/stl_list.h ****       }
1144:/opt/gcc-arm-none-eabi-9-2020-q2/arm-none-eabi/include/c++/9.3.1/bits/stl_list.h **** 
1145:/opt/gcc-arm-none-eabi-9-2020-q2/arm-none-eabi/include/c++/9.3.1/bits/stl_list.h ****       // [23.2.2.3] modifiers
1146:/opt/gcc-arm-none-eabi-9-2020-q2/arm-none-eabi/include/c++/9.3.1/bits/stl_list.h ****       /**
1147:/opt/gcc-arm-none-eabi-9-2020-q2/arm-none-eabi/include/c++/9.3.1/bits/stl_list.h ****        *  @brief  Add data to the front of the %list.
1148:/opt/gcc-arm-none-eabi-9-2020-q2/arm-none-eabi/include/c++/9.3.1/bits/stl_list.h ****        *  @param  __x  Data to be added.
1149:/opt/gcc-arm-none-eabi-9-2020-q2/arm-none-eabi/include/c++/9.3.1/bits/stl_list.h ****        *
1150:/opt/gcc-arm-none-eabi-9-2020-q2/arm-none-eabi/include/c++/9.3.1/bits/stl_list.h ****        *  This is a typical stack operation.  The function creates an
1151:/opt/gcc-arm-none-eabi-9-2020-q2/arm-none-eabi/include/c++/9.3.1/bits/stl_list.h ****        *  element at the front of the %list and assigns the given data
1152:/opt/gcc-arm-none-eabi-9-2020-q2/arm-none-eabi/include/c++/9.3.1/bits/stl_list.h ****        *  to it.  Due to the nature of a %list this operation can be
1153:/opt/gcc-arm-none-eabi-9-2020-q2/arm-none-eabi/include/c++/9.3.1/bits/stl_list.h ****        *  done in constant time, and does not invalidate iterators and
1154:/opt/gcc-arm-none-eabi-9-2020-q2/arm-none-eabi/include/c++/9.3.1/bits/stl_list.h ****        *  references.
1155:/opt/gcc-arm-none-eabi-9-2020-q2/arm-none-eabi/include/c++/9.3.1/bits/stl_list.h ****        */
1156:/opt/gcc-arm-none-eabi-9-2020-q2/arm-none-eabi/include/c++/9.3.1/bits/stl_list.h ****       void
1157:/opt/gcc-arm-none-eabi-9-2020-q2/arm-none-eabi/include/c++/9.3.1/bits/stl_list.h ****       push_front(const value_type& __x)
1158:/opt/gcc-arm-none-eabi-9-2020-q2/arm-none-eabi/include/c++/9.3.1/bits/stl_list.h ****       { this->_M_insert(begin(), __x); }
1159:/opt/gcc-arm-none-eabi-9-2020-q2/arm-none-eabi/include/c++/9.3.1/bits/stl_list.h **** 
1160:/opt/gcc-arm-none-eabi-9-2020-q2/arm-none-eabi/include/c++/9.3.1/bits/stl_list.h **** #if __cplusplus >= 201103L
1161:/opt/gcc-arm-none-eabi-9-2020-q2/arm-none-eabi/include/c++/9.3.1/bits/stl_list.h ****       void
1162:/opt/gcc-arm-none-eabi-9-2020-q2/arm-none-eabi/include/c++/9.3.1/bits/stl_list.h ****       push_front(value_type&& __x)
1163:/opt/gcc-arm-none-eabi-9-2020-q2/arm-none-eabi/include/c++/9.3.1/bits/stl_list.h ****       { this->_M_insert(begin(), std::move(__x)); }
1164:/opt/gcc-arm-none-eabi-9-2020-q2/arm-none-eabi/include/c++/9.3.1/bits/stl_list.h **** 
1165:/opt/gcc-arm-none-eabi-9-2020-q2/arm-none-eabi/include/c++/9.3.1/bits/stl_list.h ****       template<typename... _Args>
1166:/opt/gcc-arm-none-eabi-9-2020-q2/arm-none-eabi/include/c++/9.3.1/bits/stl_list.h **** #if __cplusplus > 201402L
1167:/opt/gcc-arm-none-eabi-9-2020-q2/arm-none-eabi/include/c++/9.3.1/bits/stl_list.h **** 	reference
1168:/opt/gcc-arm-none-eabi-9-2020-q2/arm-none-eabi/include/c++/9.3.1/bits/stl_list.h **** #else
1169:/opt/gcc-arm-none-eabi-9-2020-q2/arm-none-eabi/include/c++/9.3.1/bits/stl_list.h **** 	void
1170:/opt/gcc-arm-none-eabi-9-2020-q2/arm-none-eabi/include/c++/9.3.1/bits/stl_list.h **** #endif
1171:/opt/gcc-arm-none-eabi-9-2020-q2/arm-none-eabi/include/c++/9.3.1/bits/stl_list.h **** 	emplace_front(_Args&&... __args)
1172:/opt/gcc-arm-none-eabi-9-2020-q2/arm-none-eabi/include/c++/9.3.1/bits/stl_list.h **** 	{
1173:/opt/gcc-arm-none-eabi-9-2020-q2/arm-none-eabi/include/c++/9.3.1/bits/stl_list.h **** 	  this->_M_insert(begin(), std::forward<_Args>(__args)...);
1174:/opt/gcc-arm-none-eabi-9-2020-q2/arm-none-eabi/include/c++/9.3.1/bits/stl_list.h **** #if __cplusplus > 201402L
1175:/opt/gcc-arm-none-eabi-9-2020-q2/arm-none-eabi/include/c++/9.3.1/bits/stl_list.h **** 	  return front();
1176:/opt/gcc-arm-none-eabi-9-2020-q2/arm-none-eabi/include/c++/9.3.1/bits/stl_list.h **** #endif
1177:/opt/gcc-arm-none-eabi-9-2020-q2/arm-none-eabi/include/c++/9.3.1/bits/stl_list.h **** 	}
1178:/opt/gcc-arm-none-eabi-9-2020-q2/arm-none-eabi/include/c++/9.3.1/bits/stl_list.h **** #endif
1179:/opt/gcc-arm-none-eabi-9-2020-q2/arm-none-eabi/include/c++/9.3.1/bits/stl_list.h **** 
1180:/opt/gcc-arm-none-eabi-9-2020-q2/arm-none-eabi/include/c++/9.3.1/bits/stl_list.h ****       /**
1181:/opt/gcc-arm-none-eabi-9-2020-q2/arm-none-eabi/include/c++/9.3.1/bits/stl_list.h ****        *  @brief  Removes first element.
1182:/opt/gcc-arm-none-eabi-9-2020-q2/arm-none-eabi/include/c++/9.3.1/bits/stl_list.h ****        *
1183:/opt/gcc-arm-none-eabi-9-2020-q2/arm-none-eabi/include/c++/9.3.1/bits/stl_list.h ****        *  This is a typical stack operation.  It shrinks the %list by
1184:/opt/gcc-arm-none-eabi-9-2020-q2/arm-none-eabi/include/c++/9.3.1/bits/stl_list.h ****        *  one.  Due to the nature of a %list this operation can be done
1185:/opt/gcc-arm-none-eabi-9-2020-q2/arm-none-eabi/include/c++/9.3.1/bits/stl_list.h ****        *  in constant time, and only invalidates iterators/references to
1186:/opt/gcc-arm-none-eabi-9-2020-q2/arm-none-eabi/include/c++/9.3.1/bits/stl_list.h ****        *  the element being removed.
1187:/opt/gcc-arm-none-eabi-9-2020-q2/arm-none-eabi/include/c++/9.3.1/bits/stl_list.h ****        *
ARM GAS  /tmp/ccQ3xVGk.s 			page 37


1188:/opt/gcc-arm-none-eabi-9-2020-q2/arm-none-eabi/include/c++/9.3.1/bits/stl_list.h ****        *  Note that no data is returned, and if the first element's data
1189:/opt/gcc-arm-none-eabi-9-2020-q2/arm-none-eabi/include/c++/9.3.1/bits/stl_list.h ****        *  is needed, it should be retrieved before pop_front() is
1190:/opt/gcc-arm-none-eabi-9-2020-q2/arm-none-eabi/include/c++/9.3.1/bits/stl_list.h ****        *  called.
1191:/opt/gcc-arm-none-eabi-9-2020-q2/arm-none-eabi/include/c++/9.3.1/bits/stl_list.h ****        */
1192:/opt/gcc-arm-none-eabi-9-2020-q2/arm-none-eabi/include/c++/9.3.1/bits/stl_list.h ****       void
1193:/opt/gcc-arm-none-eabi-9-2020-q2/arm-none-eabi/include/c++/9.3.1/bits/stl_list.h ****       pop_front() _GLIBCXX_NOEXCEPT
1194:/opt/gcc-arm-none-eabi-9-2020-q2/arm-none-eabi/include/c++/9.3.1/bits/stl_list.h ****       { this->_M_erase(begin()); }
1195:/opt/gcc-arm-none-eabi-9-2020-q2/arm-none-eabi/include/c++/9.3.1/bits/stl_list.h **** 
1196:/opt/gcc-arm-none-eabi-9-2020-q2/arm-none-eabi/include/c++/9.3.1/bits/stl_list.h ****       /**
1197:/opt/gcc-arm-none-eabi-9-2020-q2/arm-none-eabi/include/c++/9.3.1/bits/stl_list.h ****        *  @brief  Add data to the end of the %list.
1198:/opt/gcc-arm-none-eabi-9-2020-q2/arm-none-eabi/include/c++/9.3.1/bits/stl_list.h ****        *  @param  __x  Data to be added.
1199:/opt/gcc-arm-none-eabi-9-2020-q2/arm-none-eabi/include/c++/9.3.1/bits/stl_list.h ****        *
1200:/opt/gcc-arm-none-eabi-9-2020-q2/arm-none-eabi/include/c++/9.3.1/bits/stl_list.h ****        *  This is a typical stack operation.  The function creates an
1201:/opt/gcc-arm-none-eabi-9-2020-q2/arm-none-eabi/include/c++/9.3.1/bits/stl_list.h ****        *  element at the end of the %list and assigns the given data to
1202:/opt/gcc-arm-none-eabi-9-2020-q2/arm-none-eabi/include/c++/9.3.1/bits/stl_list.h ****        *  it.  Due to the nature of a %list this operation can be done
1203:/opt/gcc-arm-none-eabi-9-2020-q2/arm-none-eabi/include/c++/9.3.1/bits/stl_list.h ****        *  in constant time, and does not invalidate iterators and
1204:/opt/gcc-arm-none-eabi-9-2020-q2/arm-none-eabi/include/c++/9.3.1/bits/stl_list.h ****        *  references.
1205:/opt/gcc-arm-none-eabi-9-2020-q2/arm-none-eabi/include/c++/9.3.1/bits/stl_list.h ****        */
1206:/opt/gcc-arm-none-eabi-9-2020-q2/arm-none-eabi/include/c++/9.3.1/bits/stl_list.h ****       void
1207:/opt/gcc-arm-none-eabi-9-2020-q2/arm-none-eabi/include/c++/9.3.1/bits/stl_list.h ****       push_back(const value_type& __x)
1208:/opt/gcc-arm-none-eabi-9-2020-q2/arm-none-eabi/include/c++/9.3.1/bits/stl_list.h ****       { this->_M_insert(end(), __x); }
1209:/opt/gcc-arm-none-eabi-9-2020-q2/arm-none-eabi/include/c++/9.3.1/bits/stl_list.h **** 
1210:/opt/gcc-arm-none-eabi-9-2020-q2/arm-none-eabi/include/c++/9.3.1/bits/stl_list.h **** #if __cplusplus >= 201103L
1211:/opt/gcc-arm-none-eabi-9-2020-q2/arm-none-eabi/include/c++/9.3.1/bits/stl_list.h ****       void
1212:/opt/gcc-arm-none-eabi-9-2020-q2/arm-none-eabi/include/c++/9.3.1/bits/stl_list.h ****       push_back(value_type&& __x)
1213:/opt/gcc-arm-none-eabi-9-2020-q2/arm-none-eabi/include/c++/9.3.1/bits/stl_list.h ****       { this->_M_insert(end(), std::move(__x)); }
1214:/opt/gcc-arm-none-eabi-9-2020-q2/arm-none-eabi/include/c++/9.3.1/bits/stl_list.h **** 
1215:/opt/gcc-arm-none-eabi-9-2020-q2/arm-none-eabi/include/c++/9.3.1/bits/stl_list.h ****       template<typename... _Args>
1216:/opt/gcc-arm-none-eabi-9-2020-q2/arm-none-eabi/include/c++/9.3.1/bits/stl_list.h **** #if __cplusplus > 201402L
1217:/opt/gcc-arm-none-eabi-9-2020-q2/arm-none-eabi/include/c++/9.3.1/bits/stl_list.h **** 	reference
1218:/opt/gcc-arm-none-eabi-9-2020-q2/arm-none-eabi/include/c++/9.3.1/bits/stl_list.h **** #else
1219:/opt/gcc-arm-none-eabi-9-2020-q2/arm-none-eabi/include/c++/9.3.1/bits/stl_list.h **** 	void
1220:/opt/gcc-arm-none-eabi-9-2020-q2/arm-none-eabi/include/c++/9.3.1/bits/stl_list.h **** #endif
1221:/opt/gcc-arm-none-eabi-9-2020-q2/arm-none-eabi/include/c++/9.3.1/bits/stl_list.h **** 	emplace_back(_Args&&... __args)
1222:/opt/gcc-arm-none-eabi-9-2020-q2/arm-none-eabi/include/c++/9.3.1/bits/stl_list.h **** 	{
1223:/opt/gcc-arm-none-eabi-9-2020-q2/arm-none-eabi/include/c++/9.3.1/bits/stl_list.h **** 	  this->_M_insert(end(), std::forward<_Args>(__args)...);
1224:/opt/gcc-arm-none-eabi-9-2020-q2/arm-none-eabi/include/c++/9.3.1/bits/stl_list.h **** #if __cplusplus > 201402L
1225:/opt/gcc-arm-none-eabi-9-2020-q2/arm-none-eabi/include/c++/9.3.1/bits/stl_list.h **** 	return back();
1226:/opt/gcc-arm-none-eabi-9-2020-q2/arm-none-eabi/include/c++/9.3.1/bits/stl_list.h **** #endif
1227:/opt/gcc-arm-none-eabi-9-2020-q2/arm-none-eabi/include/c++/9.3.1/bits/stl_list.h **** 	}
1228:/opt/gcc-arm-none-eabi-9-2020-q2/arm-none-eabi/include/c++/9.3.1/bits/stl_list.h **** #endif
1229:/opt/gcc-arm-none-eabi-9-2020-q2/arm-none-eabi/include/c++/9.3.1/bits/stl_list.h **** 
1230:/opt/gcc-arm-none-eabi-9-2020-q2/arm-none-eabi/include/c++/9.3.1/bits/stl_list.h ****       /**
1231:/opt/gcc-arm-none-eabi-9-2020-q2/arm-none-eabi/include/c++/9.3.1/bits/stl_list.h ****        *  @brief  Removes last element.
1232:/opt/gcc-arm-none-eabi-9-2020-q2/arm-none-eabi/include/c++/9.3.1/bits/stl_list.h ****        *
1233:/opt/gcc-arm-none-eabi-9-2020-q2/arm-none-eabi/include/c++/9.3.1/bits/stl_list.h ****        *  This is a typical stack operation.  It shrinks the %list by
1234:/opt/gcc-arm-none-eabi-9-2020-q2/arm-none-eabi/include/c++/9.3.1/bits/stl_list.h ****        *  one.  Due to the nature of a %list this operation can be done
1235:/opt/gcc-arm-none-eabi-9-2020-q2/arm-none-eabi/include/c++/9.3.1/bits/stl_list.h ****        *  in constant time, and only invalidates iterators/references to
1236:/opt/gcc-arm-none-eabi-9-2020-q2/arm-none-eabi/include/c++/9.3.1/bits/stl_list.h ****        *  the element being removed.
1237:/opt/gcc-arm-none-eabi-9-2020-q2/arm-none-eabi/include/c++/9.3.1/bits/stl_list.h ****        *
1238:/opt/gcc-arm-none-eabi-9-2020-q2/arm-none-eabi/include/c++/9.3.1/bits/stl_list.h ****        *  Note that no data is returned, and if the last element's data
1239:/opt/gcc-arm-none-eabi-9-2020-q2/arm-none-eabi/include/c++/9.3.1/bits/stl_list.h ****        *  is needed, it should be retrieved before pop_back() is called.
1240:/opt/gcc-arm-none-eabi-9-2020-q2/arm-none-eabi/include/c++/9.3.1/bits/stl_list.h ****        */
1241:/opt/gcc-arm-none-eabi-9-2020-q2/arm-none-eabi/include/c++/9.3.1/bits/stl_list.h ****       void
1242:/opt/gcc-arm-none-eabi-9-2020-q2/arm-none-eabi/include/c++/9.3.1/bits/stl_list.h ****       pop_back() _GLIBCXX_NOEXCEPT
1243:/opt/gcc-arm-none-eabi-9-2020-q2/arm-none-eabi/include/c++/9.3.1/bits/stl_list.h ****       { this->_M_erase(iterator(this->_M_impl._M_node._M_prev)); }
1244:/opt/gcc-arm-none-eabi-9-2020-q2/arm-none-eabi/include/c++/9.3.1/bits/stl_list.h **** 
ARM GAS  /tmp/ccQ3xVGk.s 			page 38


1245:/opt/gcc-arm-none-eabi-9-2020-q2/arm-none-eabi/include/c++/9.3.1/bits/stl_list.h **** #if __cplusplus >= 201103L
1246:/opt/gcc-arm-none-eabi-9-2020-q2/arm-none-eabi/include/c++/9.3.1/bits/stl_list.h ****       /**
1247:/opt/gcc-arm-none-eabi-9-2020-q2/arm-none-eabi/include/c++/9.3.1/bits/stl_list.h ****        *  @brief  Constructs object in %list before specified iterator.
1248:/opt/gcc-arm-none-eabi-9-2020-q2/arm-none-eabi/include/c++/9.3.1/bits/stl_list.h ****        *  @param  __position  A const_iterator into the %list.
1249:/opt/gcc-arm-none-eabi-9-2020-q2/arm-none-eabi/include/c++/9.3.1/bits/stl_list.h ****        *  @param  __args  Arguments.
1250:/opt/gcc-arm-none-eabi-9-2020-q2/arm-none-eabi/include/c++/9.3.1/bits/stl_list.h ****        *  @return  An iterator that points to the inserted data.
1251:/opt/gcc-arm-none-eabi-9-2020-q2/arm-none-eabi/include/c++/9.3.1/bits/stl_list.h ****        *
1252:/opt/gcc-arm-none-eabi-9-2020-q2/arm-none-eabi/include/c++/9.3.1/bits/stl_list.h ****        *  This function will insert an object of type T constructed
1253:/opt/gcc-arm-none-eabi-9-2020-q2/arm-none-eabi/include/c++/9.3.1/bits/stl_list.h ****        *  with T(std::forward<Args>(args)...) before the specified
1254:/opt/gcc-arm-none-eabi-9-2020-q2/arm-none-eabi/include/c++/9.3.1/bits/stl_list.h ****        *  location.  Due to the nature of a %list this operation can
1255:/opt/gcc-arm-none-eabi-9-2020-q2/arm-none-eabi/include/c++/9.3.1/bits/stl_list.h ****        *  be done in constant time, and does not invalidate iterators
1256:/opt/gcc-arm-none-eabi-9-2020-q2/arm-none-eabi/include/c++/9.3.1/bits/stl_list.h ****        *  and references.
1257:/opt/gcc-arm-none-eabi-9-2020-q2/arm-none-eabi/include/c++/9.3.1/bits/stl_list.h ****        */
1258:/opt/gcc-arm-none-eabi-9-2020-q2/arm-none-eabi/include/c++/9.3.1/bits/stl_list.h ****       template<typename... _Args>
1259:/opt/gcc-arm-none-eabi-9-2020-q2/arm-none-eabi/include/c++/9.3.1/bits/stl_list.h **** 	iterator
1260:/opt/gcc-arm-none-eabi-9-2020-q2/arm-none-eabi/include/c++/9.3.1/bits/stl_list.h **** 	emplace(const_iterator __position, _Args&&... __args);
1261:/opt/gcc-arm-none-eabi-9-2020-q2/arm-none-eabi/include/c++/9.3.1/bits/stl_list.h **** 
1262:/opt/gcc-arm-none-eabi-9-2020-q2/arm-none-eabi/include/c++/9.3.1/bits/stl_list.h ****       /**
1263:/opt/gcc-arm-none-eabi-9-2020-q2/arm-none-eabi/include/c++/9.3.1/bits/stl_list.h ****        *  @brief  Inserts given value into %list before specified iterator.
1264:/opt/gcc-arm-none-eabi-9-2020-q2/arm-none-eabi/include/c++/9.3.1/bits/stl_list.h ****        *  @param  __position  A const_iterator into the %list.
1265:/opt/gcc-arm-none-eabi-9-2020-q2/arm-none-eabi/include/c++/9.3.1/bits/stl_list.h ****        *  @param  __x  Data to be inserted.
1266:/opt/gcc-arm-none-eabi-9-2020-q2/arm-none-eabi/include/c++/9.3.1/bits/stl_list.h ****        *  @return  An iterator that points to the inserted data.
1267:/opt/gcc-arm-none-eabi-9-2020-q2/arm-none-eabi/include/c++/9.3.1/bits/stl_list.h ****        *
1268:/opt/gcc-arm-none-eabi-9-2020-q2/arm-none-eabi/include/c++/9.3.1/bits/stl_list.h ****        *  This function will insert a copy of the given value before
1269:/opt/gcc-arm-none-eabi-9-2020-q2/arm-none-eabi/include/c++/9.3.1/bits/stl_list.h ****        *  the specified location.  Due to the nature of a %list this
1270:/opt/gcc-arm-none-eabi-9-2020-q2/arm-none-eabi/include/c++/9.3.1/bits/stl_list.h ****        *  operation can be done in constant time, and does not
1271:/opt/gcc-arm-none-eabi-9-2020-q2/arm-none-eabi/include/c++/9.3.1/bits/stl_list.h ****        *  invalidate iterators and references.
1272:/opt/gcc-arm-none-eabi-9-2020-q2/arm-none-eabi/include/c++/9.3.1/bits/stl_list.h ****        */
1273:/opt/gcc-arm-none-eabi-9-2020-q2/arm-none-eabi/include/c++/9.3.1/bits/stl_list.h ****       iterator
1274:/opt/gcc-arm-none-eabi-9-2020-q2/arm-none-eabi/include/c++/9.3.1/bits/stl_list.h ****       insert(const_iterator __position, const value_type& __x);
1275:/opt/gcc-arm-none-eabi-9-2020-q2/arm-none-eabi/include/c++/9.3.1/bits/stl_list.h **** #else
1276:/opt/gcc-arm-none-eabi-9-2020-q2/arm-none-eabi/include/c++/9.3.1/bits/stl_list.h ****       /**
1277:/opt/gcc-arm-none-eabi-9-2020-q2/arm-none-eabi/include/c++/9.3.1/bits/stl_list.h ****        *  @brief  Inserts given value into %list before specified iterator.
1278:/opt/gcc-arm-none-eabi-9-2020-q2/arm-none-eabi/include/c++/9.3.1/bits/stl_list.h ****        *  @param  __position  An iterator into the %list.
1279:/opt/gcc-arm-none-eabi-9-2020-q2/arm-none-eabi/include/c++/9.3.1/bits/stl_list.h ****        *  @param  __x  Data to be inserted.
1280:/opt/gcc-arm-none-eabi-9-2020-q2/arm-none-eabi/include/c++/9.3.1/bits/stl_list.h ****        *  @return  An iterator that points to the inserted data.
1281:/opt/gcc-arm-none-eabi-9-2020-q2/arm-none-eabi/include/c++/9.3.1/bits/stl_list.h ****        *
1282:/opt/gcc-arm-none-eabi-9-2020-q2/arm-none-eabi/include/c++/9.3.1/bits/stl_list.h ****        *  This function will insert a copy of the given value before
1283:/opt/gcc-arm-none-eabi-9-2020-q2/arm-none-eabi/include/c++/9.3.1/bits/stl_list.h ****        *  the specified location.  Due to the nature of a %list this
1284:/opt/gcc-arm-none-eabi-9-2020-q2/arm-none-eabi/include/c++/9.3.1/bits/stl_list.h ****        *  operation can be done in constant time, and does not
1285:/opt/gcc-arm-none-eabi-9-2020-q2/arm-none-eabi/include/c++/9.3.1/bits/stl_list.h ****        *  invalidate iterators and references.
1286:/opt/gcc-arm-none-eabi-9-2020-q2/arm-none-eabi/include/c++/9.3.1/bits/stl_list.h ****        */
1287:/opt/gcc-arm-none-eabi-9-2020-q2/arm-none-eabi/include/c++/9.3.1/bits/stl_list.h ****       iterator
1288:/opt/gcc-arm-none-eabi-9-2020-q2/arm-none-eabi/include/c++/9.3.1/bits/stl_list.h ****       insert(iterator __position, const value_type& __x);
1289:/opt/gcc-arm-none-eabi-9-2020-q2/arm-none-eabi/include/c++/9.3.1/bits/stl_list.h **** #endif
1290:/opt/gcc-arm-none-eabi-9-2020-q2/arm-none-eabi/include/c++/9.3.1/bits/stl_list.h **** 
1291:/opt/gcc-arm-none-eabi-9-2020-q2/arm-none-eabi/include/c++/9.3.1/bits/stl_list.h **** #if __cplusplus >= 201103L
1292:/opt/gcc-arm-none-eabi-9-2020-q2/arm-none-eabi/include/c++/9.3.1/bits/stl_list.h ****       /**
1293:/opt/gcc-arm-none-eabi-9-2020-q2/arm-none-eabi/include/c++/9.3.1/bits/stl_list.h ****        *  @brief  Inserts given rvalue into %list before specified iterator.
1294:/opt/gcc-arm-none-eabi-9-2020-q2/arm-none-eabi/include/c++/9.3.1/bits/stl_list.h ****        *  @param  __position  A const_iterator into the %list.
1295:/opt/gcc-arm-none-eabi-9-2020-q2/arm-none-eabi/include/c++/9.3.1/bits/stl_list.h ****        *  @param  __x  Data to be inserted.
1296:/opt/gcc-arm-none-eabi-9-2020-q2/arm-none-eabi/include/c++/9.3.1/bits/stl_list.h ****        *  @return  An iterator that points to the inserted data.
1297:/opt/gcc-arm-none-eabi-9-2020-q2/arm-none-eabi/include/c++/9.3.1/bits/stl_list.h ****        *
1298:/opt/gcc-arm-none-eabi-9-2020-q2/arm-none-eabi/include/c++/9.3.1/bits/stl_list.h ****        *  This function will insert a copy of the given rvalue before
1299:/opt/gcc-arm-none-eabi-9-2020-q2/arm-none-eabi/include/c++/9.3.1/bits/stl_list.h ****        *  the specified location.  Due to the nature of a %list this
1300:/opt/gcc-arm-none-eabi-9-2020-q2/arm-none-eabi/include/c++/9.3.1/bits/stl_list.h ****        *  operation can be done in constant time, and does not
1301:/opt/gcc-arm-none-eabi-9-2020-q2/arm-none-eabi/include/c++/9.3.1/bits/stl_list.h ****        *  invalidate iterators and references.
ARM GAS  /tmp/ccQ3xVGk.s 			page 39


1302:/opt/gcc-arm-none-eabi-9-2020-q2/arm-none-eabi/include/c++/9.3.1/bits/stl_list.h **** 	*/
1303:/opt/gcc-arm-none-eabi-9-2020-q2/arm-none-eabi/include/c++/9.3.1/bits/stl_list.h ****       iterator
1304:/opt/gcc-arm-none-eabi-9-2020-q2/arm-none-eabi/include/c++/9.3.1/bits/stl_list.h ****       insert(const_iterator __position, value_type&& __x)
1305:/opt/gcc-arm-none-eabi-9-2020-q2/arm-none-eabi/include/c++/9.3.1/bits/stl_list.h ****       { return emplace(__position, std::move(__x)); }
1306:/opt/gcc-arm-none-eabi-9-2020-q2/arm-none-eabi/include/c++/9.3.1/bits/stl_list.h **** 
1307:/opt/gcc-arm-none-eabi-9-2020-q2/arm-none-eabi/include/c++/9.3.1/bits/stl_list.h ****       /**
1308:/opt/gcc-arm-none-eabi-9-2020-q2/arm-none-eabi/include/c++/9.3.1/bits/stl_list.h ****        *  @brief  Inserts the contents of an initializer_list into %list
1309:/opt/gcc-arm-none-eabi-9-2020-q2/arm-none-eabi/include/c++/9.3.1/bits/stl_list.h ****        *          before specified const_iterator.
1310:/opt/gcc-arm-none-eabi-9-2020-q2/arm-none-eabi/include/c++/9.3.1/bits/stl_list.h ****        *  @param  __p  A const_iterator into the %list.
1311:/opt/gcc-arm-none-eabi-9-2020-q2/arm-none-eabi/include/c++/9.3.1/bits/stl_list.h ****        *  @param  __l  An initializer_list of value_type.
1312:/opt/gcc-arm-none-eabi-9-2020-q2/arm-none-eabi/include/c++/9.3.1/bits/stl_list.h ****        *  @return  An iterator pointing to the first element inserted
1313:/opt/gcc-arm-none-eabi-9-2020-q2/arm-none-eabi/include/c++/9.3.1/bits/stl_list.h ****        *           (or __position).
1314:/opt/gcc-arm-none-eabi-9-2020-q2/arm-none-eabi/include/c++/9.3.1/bits/stl_list.h ****        *
1315:/opt/gcc-arm-none-eabi-9-2020-q2/arm-none-eabi/include/c++/9.3.1/bits/stl_list.h ****        *  This function will insert copies of the data in the
1316:/opt/gcc-arm-none-eabi-9-2020-q2/arm-none-eabi/include/c++/9.3.1/bits/stl_list.h ****        *  initializer_list @a l into the %list before the location
1317:/opt/gcc-arm-none-eabi-9-2020-q2/arm-none-eabi/include/c++/9.3.1/bits/stl_list.h ****        *  specified by @a p.
1318:/opt/gcc-arm-none-eabi-9-2020-q2/arm-none-eabi/include/c++/9.3.1/bits/stl_list.h ****        *
1319:/opt/gcc-arm-none-eabi-9-2020-q2/arm-none-eabi/include/c++/9.3.1/bits/stl_list.h ****        *  This operation is linear in the number of elements inserted and
1320:/opt/gcc-arm-none-eabi-9-2020-q2/arm-none-eabi/include/c++/9.3.1/bits/stl_list.h ****        *  does not invalidate iterators and references.
1321:/opt/gcc-arm-none-eabi-9-2020-q2/arm-none-eabi/include/c++/9.3.1/bits/stl_list.h ****        */
1322:/opt/gcc-arm-none-eabi-9-2020-q2/arm-none-eabi/include/c++/9.3.1/bits/stl_list.h ****       iterator
1323:/opt/gcc-arm-none-eabi-9-2020-q2/arm-none-eabi/include/c++/9.3.1/bits/stl_list.h ****       insert(const_iterator __p, initializer_list<value_type> __l)
1324:/opt/gcc-arm-none-eabi-9-2020-q2/arm-none-eabi/include/c++/9.3.1/bits/stl_list.h ****       { return this->insert(__p, __l.begin(), __l.end()); }
1325:/opt/gcc-arm-none-eabi-9-2020-q2/arm-none-eabi/include/c++/9.3.1/bits/stl_list.h **** #endif
1326:/opt/gcc-arm-none-eabi-9-2020-q2/arm-none-eabi/include/c++/9.3.1/bits/stl_list.h **** 
1327:/opt/gcc-arm-none-eabi-9-2020-q2/arm-none-eabi/include/c++/9.3.1/bits/stl_list.h **** #if __cplusplus >= 201103L
1328:/opt/gcc-arm-none-eabi-9-2020-q2/arm-none-eabi/include/c++/9.3.1/bits/stl_list.h ****       /**
1329:/opt/gcc-arm-none-eabi-9-2020-q2/arm-none-eabi/include/c++/9.3.1/bits/stl_list.h ****        *  @brief  Inserts a number of copies of given data into the %list.
1330:/opt/gcc-arm-none-eabi-9-2020-q2/arm-none-eabi/include/c++/9.3.1/bits/stl_list.h ****        *  @param  __position  A const_iterator into the %list.
1331:/opt/gcc-arm-none-eabi-9-2020-q2/arm-none-eabi/include/c++/9.3.1/bits/stl_list.h ****        *  @param  __n  Number of elements to be inserted.
1332:/opt/gcc-arm-none-eabi-9-2020-q2/arm-none-eabi/include/c++/9.3.1/bits/stl_list.h ****        *  @param  __x  Data to be inserted.
1333:/opt/gcc-arm-none-eabi-9-2020-q2/arm-none-eabi/include/c++/9.3.1/bits/stl_list.h ****        *  @return  An iterator pointing to the first element inserted
1334:/opt/gcc-arm-none-eabi-9-2020-q2/arm-none-eabi/include/c++/9.3.1/bits/stl_list.h ****        *           (or __position).
1335:/opt/gcc-arm-none-eabi-9-2020-q2/arm-none-eabi/include/c++/9.3.1/bits/stl_list.h ****        *
1336:/opt/gcc-arm-none-eabi-9-2020-q2/arm-none-eabi/include/c++/9.3.1/bits/stl_list.h ****        *  This function will insert a specified number of copies of the
1337:/opt/gcc-arm-none-eabi-9-2020-q2/arm-none-eabi/include/c++/9.3.1/bits/stl_list.h ****        *  given data before the location specified by @a position.
1338:/opt/gcc-arm-none-eabi-9-2020-q2/arm-none-eabi/include/c++/9.3.1/bits/stl_list.h ****        *
1339:/opt/gcc-arm-none-eabi-9-2020-q2/arm-none-eabi/include/c++/9.3.1/bits/stl_list.h ****        *  This operation is linear in the number of elements inserted and
1340:/opt/gcc-arm-none-eabi-9-2020-q2/arm-none-eabi/include/c++/9.3.1/bits/stl_list.h ****        *  does not invalidate iterators and references.
1341:/opt/gcc-arm-none-eabi-9-2020-q2/arm-none-eabi/include/c++/9.3.1/bits/stl_list.h ****        */
1342:/opt/gcc-arm-none-eabi-9-2020-q2/arm-none-eabi/include/c++/9.3.1/bits/stl_list.h ****       iterator
1343:/opt/gcc-arm-none-eabi-9-2020-q2/arm-none-eabi/include/c++/9.3.1/bits/stl_list.h ****       insert(const_iterator __position, size_type __n, const value_type& __x);
1344:/opt/gcc-arm-none-eabi-9-2020-q2/arm-none-eabi/include/c++/9.3.1/bits/stl_list.h **** #else
1345:/opt/gcc-arm-none-eabi-9-2020-q2/arm-none-eabi/include/c++/9.3.1/bits/stl_list.h ****       /**
1346:/opt/gcc-arm-none-eabi-9-2020-q2/arm-none-eabi/include/c++/9.3.1/bits/stl_list.h ****        *  @brief  Inserts a number of copies of given data into the %list.
1347:/opt/gcc-arm-none-eabi-9-2020-q2/arm-none-eabi/include/c++/9.3.1/bits/stl_list.h ****        *  @param  __position  An iterator into the %list.
1348:/opt/gcc-arm-none-eabi-9-2020-q2/arm-none-eabi/include/c++/9.3.1/bits/stl_list.h ****        *  @param  __n  Number of elements to be inserted.
1349:/opt/gcc-arm-none-eabi-9-2020-q2/arm-none-eabi/include/c++/9.3.1/bits/stl_list.h ****        *  @param  __x  Data to be inserted.
1350:/opt/gcc-arm-none-eabi-9-2020-q2/arm-none-eabi/include/c++/9.3.1/bits/stl_list.h ****        *
1351:/opt/gcc-arm-none-eabi-9-2020-q2/arm-none-eabi/include/c++/9.3.1/bits/stl_list.h ****        *  This function will insert a specified number of copies of the
1352:/opt/gcc-arm-none-eabi-9-2020-q2/arm-none-eabi/include/c++/9.3.1/bits/stl_list.h ****        *  given data before the location specified by @a position.
1353:/opt/gcc-arm-none-eabi-9-2020-q2/arm-none-eabi/include/c++/9.3.1/bits/stl_list.h ****        *
1354:/opt/gcc-arm-none-eabi-9-2020-q2/arm-none-eabi/include/c++/9.3.1/bits/stl_list.h ****        *  This operation is linear in the number of elements inserted and
1355:/opt/gcc-arm-none-eabi-9-2020-q2/arm-none-eabi/include/c++/9.3.1/bits/stl_list.h ****        *  does not invalidate iterators and references.
1356:/opt/gcc-arm-none-eabi-9-2020-q2/arm-none-eabi/include/c++/9.3.1/bits/stl_list.h ****        */
1357:/opt/gcc-arm-none-eabi-9-2020-q2/arm-none-eabi/include/c++/9.3.1/bits/stl_list.h ****       void
1358:/opt/gcc-arm-none-eabi-9-2020-q2/arm-none-eabi/include/c++/9.3.1/bits/stl_list.h ****       insert(iterator __position, size_type __n, const value_type& __x)
ARM GAS  /tmp/ccQ3xVGk.s 			page 40


1359:/opt/gcc-arm-none-eabi-9-2020-q2/arm-none-eabi/include/c++/9.3.1/bits/stl_list.h ****       {
1360:/opt/gcc-arm-none-eabi-9-2020-q2/arm-none-eabi/include/c++/9.3.1/bits/stl_list.h **** 	list __tmp(__n, __x, get_allocator());
1361:/opt/gcc-arm-none-eabi-9-2020-q2/arm-none-eabi/include/c++/9.3.1/bits/stl_list.h **** 	splice(__position, __tmp);
1362:/opt/gcc-arm-none-eabi-9-2020-q2/arm-none-eabi/include/c++/9.3.1/bits/stl_list.h ****       }
1363:/opt/gcc-arm-none-eabi-9-2020-q2/arm-none-eabi/include/c++/9.3.1/bits/stl_list.h **** #endif
1364:/opt/gcc-arm-none-eabi-9-2020-q2/arm-none-eabi/include/c++/9.3.1/bits/stl_list.h **** 
1365:/opt/gcc-arm-none-eabi-9-2020-q2/arm-none-eabi/include/c++/9.3.1/bits/stl_list.h **** #if __cplusplus >= 201103L
1366:/opt/gcc-arm-none-eabi-9-2020-q2/arm-none-eabi/include/c++/9.3.1/bits/stl_list.h ****       /**
1367:/opt/gcc-arm-none-eabi-9-2020-q2/arm-none-eabi/include/c++/9.3.1/bits/stl_list.h ****        *  @brief  Inserts a range into the %list.
1368:/opt/gcc-arm-none-eabi-9-2020-q2/arm-none-eabi/include/c++/9.3.1/bits/stl_list.h ****        *  @param  __position  A const_iterator into the %list.
1369:/opt/gcc-arm-none-eabi-9-2020-q2/arm-none-eabi/include/c++/9.3.1/bits/stl_list.h ****        *  @param  __first  An input iterator.
1370:/opt/gcc-arm-none-eabi-9-2020-q2/arm-none-eabi/include/c++/9.3.1/bits/stl_list.h ****        *  @param  __last   An input iterator.
1371:/opt/gcc-arm-none-eabi-9-2020-q2/arm-none-eabi/include/c++/9.3.1/bits/stl_list.h ****        *  @return  An iterator pointing to the first element inserted
1372:/opt/gcc-arm-none-eabi-9-2020-q2/arm-none-eabi/include/c++/9.3.1/bits/stl_list.h ****        *           (or __position).
1373:/opt/gcc-arm-none-eabi-9-2020-q2/arm-none-eabi/include/c++/9.3.1/bits/stl_list.h ****        *
1374:/opt/gcc-arm-none-eabi-9-2020-q2/arm-none-eabi/include/c++/9.3.1/bits/stl_list.h ****        *  This function will insert copies of the data in the range [@a
1375:/opt/gcc-arm-none-eabi-9-2020-q2/arm-none-eabi/include/c++/9.3.1/bits/stl_list.h ****        *  first,@a last) into the %list before the location specified by
1376:/opt/gcc-arm-none-eabi-9-2020-q2/arm-none-eabi/include/c++/9.3.1/bits/stl_list.h ****        *  @a position.
1377:/opt/gcc-arm-none-eabi-9-2020-q2/arm-none-eabi/include/c++/9.3.1/bits/stl_list.h ****        *
1378:/opt/gcc-arm-none-eabi-9-2020-q2/arm-none-eabi/include/c++/9.3.1/bits/stl_list.h ****        *  This operation is linear in the number of elements inserted and
1379:/opt/gcc-arm-none-eabi-9-2020-q2/arm-none-eabi/include/c++/9.3.1/bits/stl_list.h ****        *  does not invalidate iterators and references.
1380:/opt/gcc-arm-none-eabi-9-2020-q2/arm-none-eabi/include/c++/9.3.1/bits/stl_list.h ****        */
1381:/opt/gcc-arm-none-eabi-9-2020-q2/arm-none-eabi/include/c++/9.3.1/bits/stl_list.h ****       template<typename _InputIterator,
1382:/opt/gcc-arm-none-eabi-9-2020-q2/arm-none-eabi/include/c++/9.3.1/bits/stl_list.h **** 	       typename = std::_RequireInputIter<_InputIterator>>
1383:/opt/gcc-arm-none-eabi-9-2020-q2/arm-none-eabi/include/c++/9.3.1/bits/stl_list.h **** 	iterator
1384:/opt/gcc-arm-none-eabi-9-2020-q2/arm-none-eabi/include/c++/9.3.1/bits/stl_list.h **** 	insert(const_iterator __position, _InputIterator __first,
1385:/opt/gcc-arm-none-eabi-9-2020-q2/arm-none-eabi/include/c++/9.3.1/bits/stl_list.h **** 	       _InputIterator __last);
1386:/opt/gcc-arm-none-eabi-9-2020-q2/arm-none-eabi/include/c++/9.3.1/bits/stl_list.h **** #else
1387:/opt/gcc-arm-none-eabi-9-2020-q2/arm-none-eabi/include/c++/9.3.1/bits/stl_list.h ****       /**
1388:/opt/gcc-arm-none-eabi-9-2020-q2/arm-none-eabi/include/c++/9.3.1/bits/stl_list.h ****        *  @brief  Inserts a range into the %list.
1389:/opt/gcc-arm-none-eabi-9-2020-q2/arm-none-eabi/include/c++/9.3.1/bits/stl_list.h ****        *  @param  __position  An iterator into the %list.
1390:/opt/gcc-arm-none-eabi-9-2020-q2/arm-none-eabi/include/c++/9.3.1/bits/stl_list.h ****        *  @param  __first  An input iterator.
1391:/opt/gcc-arm-none-eabi-9-2020-q2/arm-none-eabi/include/c++/9.3.1/bits/stl_list.h ****        *  @param  __last   An input iterator.
1392:/opt/gcc-arm-none-eabi-9-2020-q2/arm-none-eabi/include/c++/9.3.1/bits/stl_list.h ****        *
1393:/opt/gcc-arm-none-eabi-9-2020-q2/arm-none-eabi/include/c++/9.3.1/bits/stl_list.h ****        *  This function will insert copies of the data in the range [@a
1394:/opt/gcc-arm-none-eabi-9-2020-q2/arm-none-eabi/include/c++/9.3.1/bits/stl_list.h ****        *  first,@a last) into the %list before the location specified by
1395:/opt/gcc-arm-none-eabi-9-2020-q2/arm-none-eabi/include/c++/9.3.1/bits/stl_list.h ****        *  @a position.
1396:/opt/gcc-arm-none-eabi-9-2020-q2/arm-none-eabi/include/c++/9.3.1/bits/stl_list.h ****        *
1397:/opt/gcc-arm-none-eabi-9-2020-q2/arm-none-eabi/include/c++/9.3.1/bits/stl_list.h ****        *  This operation is linear in the number of elements inserted and
1398:/opt/gcc-arm-none-eabi-9-2020-q2/arm-none-eabi/include/c++/9.3.1/bits/stl_list.h ****        *  does not invalidate iterators and references.
1399:/opt/gcc-arm-none-eabi-9-2020-q2/arm-none-eabi/include/c++/9.3.1/bits/stl_list.h ****        */
1400:/opt/gcc-arm-none-eabi-9-2020-q2/arm-none-eabi/include/c++/9.3.1/bits/stl_list.h ****       template<typename _InputIterator>
1401:/opt/gcc-arm-none-eabi-9-2020-q2/arm-none-eabi/include/c++/9.3.1/bits/stl_list.h **** 	void
1402:/opt/gcc-arm-none-eabi-9-2020-q2/arm-none-eabi/include/c++/9.3.1/bits/stl_list.h **** 	insert(iterator __position, _InputIterator __first,
1403:/opt/gcc-arm-none-eabi-9-2020-q2/arm-none-eabi/include/c++/9.3.1/bits/stl_list.h **** 	       _InputIterator __last)
1404:/opt/gcc-arm-none-eabi-9-2020-q2/arm-none-eabi/include/c++/9.3.1/bits/stl_list.h **** 	{
1405:/opt/gcc-arm-none-eabi-9-2020-q2/arm-none-eabi/include/c++/9.3.1/bits/stl_list.h **** 	  list __tmp(__first, __last, get_allocator());
1406:/opt/gcc-arm-none-eabi-9-2020-q2/arm-none-eabi/include/c++/9.3.1/bits/stl_list.h **** 	  splice(__position, __tmp);
1407:/opt/gcc-arm-none-eabi-9-2020-q2/arm-none-eabi/include/c++/9.3.1/bits/stl_list.h **** 	}
1408:/opt/gcc-arm-none-eabi-9-2020-q2/arm-none-eabi/include/c++/9.3.1/bits/stl_list.h **** #endif
1409:/opt/gcc-arm-none-eabi-9-2020-q2/arm-none-eabi/include/c++/9.3.1/bits/stl_list.h **** 
1410:/opt/gcc-arm-none-eabi-9-2020-q2/arm-none-eabi/include/c++/9.3.1/bits/stl_list.h ****       /**
1411:/opt/gcc-arm-none-eabi-9-2020-q2/arm-none-eabi/include/c++/9.3.1/bits/stl_list.h ****        *  @brief  Remove element at given position.
1412:/opt/gcc-arm-none-eabi-9-2020-q2/arm-none-eabi/include/c++/9.3.1/bits/stl_list.h ****        *  @param  __position  Iterator pointing to element to be erased.
1413:/opt/gcc-arm-none-eabi-9-2020-q2/arm-none-eabi/include/c++/9.3.1/bits/stl_list.h ****        *  @return  An iterator pointing to the next element (or end()).
1414:/opt/gcc-arm-none-eabi-9-2020-q2/arm-none-eabi/include/c++/9.3.1/bits/stl_list.h ****        *
1415:/opt/gcc-arm-none-eabi-9-2020-q2/arm-none-eabi/include/c++/9.3.1/bits/stl_list.h ****        *  This function will erase the element at the given position and thus
ARM GAS  /tmp/ccQ3xVGk.s 			page 41


1416:/opt/gcc-arm-none-eabi-9-2020-q2/arm-none-eabi/include/c++/9.3.1/bits/stl_list.h ****        *  shorten the %list by one.
1417:/opt/gcc-arm-none-eabi-9-2020-q2/arm-none-eabi/include/c++/9.3.1/bits/stl_list.h ****        *
1418:/opt/gcc-arm-none-eabi-9-2020-q2/arm-none-eabi/include/c++/9.3.1/bits/stl_list.h ****        *  Due to the nature of a %list this operation can be done in
